
Metal_Detector_F103_cpp.elf:     file format elf32-littlearm

Sections:
Idx Name          Size      VMA       LMA       File off  Algn
  0 .isr_vector   00000130  08000000  08000000  00010000  2**0
                  CONTENTS, ALLOC, LOAD, READONLY, DATA
  1 .text         00001414  08000130  08000130  00010130  2**2
                  CONTENTS, ALLOC, LOAD, READONLY, CODE
  2 .rodata       00000070  08001544  08001544  00011544  2**2
                  CONTENTS, ALLOC, LOAD, READONLY, DATA
  3 .ARM.extab    00000000  080015b4  080015b4  00020068  2**0
                  CONTENTS
  4 .ARM          00000000  080015b4  080015b4  00020068  2**0
                  CONTENTS
  5 .preinit_array 00000000  080015b4  080015b4  00020068  2**0
                  CONTENTS, ALLOC, LOAD, DATA
  6 .init_array   00000004  080015b4  080015b4  000115b4  2**2
                  CONTENTS, ALLOC, LOAD, DATA
  7 .fini_array   00000004  080015b8  080015b8  000115b8  2**2
                  CONTENTS, ALLOC, LOAD, DATA
  8 .data         00000068  20000000  080015bc  00020000  2**2
                  CONTENTS, ALLOC, LOAD, DATA
  9 .bss          0000009c  20000068  08001624  00020068  2**2
                  ALLOC
 10 ._user_heap_stack 00000604  20000104  08001624  00020104  2**0
                  ALLOC
 11 .ARM.attributes 00000029  00000000  00000000  00020068  2**0
                  CONTENTS, READONLY
 12 .debug_info   0000240d  00000000  00000000  00020091  2**0
                  CONTENTS, READONLY, DEBUGGING, OCTETS
 13 .debug_abbrev 00000bb3  00000000  00000000  0002249e  2**0
                  CONTENTS, READONLY, DEBUGGING, OCTETS
 14 .debug_aranges 00000250  00000000  00000000  00023058  2**3
                  CONTENTS, READONLY, DEBUGGING, OCTETS
 15 .debug_ranges 000001c8  00000000  00000000  000232a8  2**3
                  CONTENTS, READONLY, DEBUGGING, OCTETS
 16 .debug_macro  000129e4  00000000  00000000  00023470  2**0
                  CONTENTS, READONLY, DEBUGGING, OCTETS
 17 .debug_line   00003ac0  00000000  00000000  00035e54  2**0
                  CONTENTS, READONLY, DEBUGGING, OCTETS
 18 .debug_str    00059ca3  00000000  00000000  00039914  2**0
                  CONTENTS, READONLY, DEBUGGING, OCTETS
 19 .comment      00000050  00000000  00000000  000935b7  2**0
                  CONTENTS, READONLY
 20 .debug_frame  00000b34  00000000  00000000  00093608  2**2
                  CONTENTS, READONLY, DEBUGGING, OCTETS

Disassembly of section .text:

08000130 <__do_global_dtors_aux>:
 8000130:	b510      	push	{r4, lr}
 8000132:	4c05      	ldr	r4, [pc, #20]	; (8000148 <__do_global_dtors_aux+0x18>)
 8000134:	7823      	ldrb	r3, [r4, #0]
 8000136:	b933      	cbnz	r3, 8000146 <__do_global_dtors_aux+0x16>
 8000138:	4b04      	ldr	r3, [pc, #16]	; (800014c <__do_global_dtors_aux+0x1c>)
 800013a:	b113      	cbz	r3, 8000142 <__do_global_dtors_aux+0x12>
 800013c:	4804      	ldr	r0, [pc, #16]	; (8000150 <__do_global_dtors_aux+0x20>)
 800013e:	f3af 8000 	nop.w
 8000142:	2301      	movs	r3, #1
 8000144:	7023      	strb	r3, [r4, #0]
 8000146:	bd10      	pop	{r4, pc}
 8000148:	20000068 	.word	0x20000068
 800014c:	00000000 	.word	0x00000000
 8000150:	0800152c 	.word	0x0800152c

08000154 <frame_dummy>:
 8000154:	b508      	push	{r3, lr}
 8000156:	4b03      	ldr	r3, [pc, #12]	; (8000164 <frame_dummy+0x10>)
 8000158:	b11b      	cbz	r3, 8000162 <frame_dummy+0xe>
 800015a:	4903      	ldr	r1, [pc, #12]	; (8000168 <frame_dummy+0x14>)
 800015c:	4803      	ldr	r0, [pc, #12]	; (800016c <frame_dummy+0x18>)
 800015e:	f3af 8000 	nop.w
 8000162:	bd08      	pop	{r3, pc}
 8000164:	00000000 	.word	0x00000000
 8000168:	2000006c 	.word	0x2000006c
 800016c:	0800152c 	.word	0x0800152c

08000170 <strlen>:
 8000170:	4603      	mov	r3, r0
 8000172:	f813 2b01 	ldrb.w	r2, [r3], #1
 8000176:	2a00      	cmp	r2, #0
 8000178:	d1fb      	bne.n	8000172 <strlen+0x2>
 800017a:	1a18      	subs	r0, r3, r0
 800017c:	3801      	subs	r0, #1
 800017e:	4770      	bx	lr

08000180 <_Z16ADC1_IN9_PB1_iniv>:
#include <string.h>
#include "stm32f1xx.h"
#include "main.h"

void ADC1_IN9_PB1_ini()
{
 8000180:	b480      	push	{r7}
 8000182:	b083      	sub	sp, #12
 8000184:	af00      	add	r7, sp, #0
  // Input mode
  GPIOB->CRL &= ~GPIO_CRL_MODE1;
 8000186:	4b3d      	ldr	r3, [pc, #244]	; (800027c <_Z16ADC1_IN9_PB1_iniv+0xfc>)
 8000188:	681b      	ldr	r3, [r3, #0]
 800018a:	4a3c      	ldr	r2, [pc, #240]	; (800027c <_Z16ADC1_IN9_PB1_iniv+0xfc>)
 800018c:	f023 0330 	bic.w	r3, r3, #48	; 0x30
 8000190:	6013      	str	r3, [r2, #0]
  GPIOB->CRL |= (0b00 << GPIO_CRL_MODE1_Pos);
 8000192:	4b3a      	ldr	r3, [pc, #232]	; (800027c <_Z16ADC1_IN9_PB1_iniv+0xfc>)
 8000194:	4a39      	ldr	r2, [pc, #228]	; (800027c <_Z16ADC1_IN9_PB1_iniv+0xfc>)
 8000196:	681b      	ldr	r3, [r3, #0]
 8000198:	6013      	str	r3, [r2, #0]
  // In input mode - Analog mode
  GPIOB->CRL &= ~GPIO_CRL_CNF1;
 800019a:	4b38      	ldr	r3, [pc, #224]	; (800027c <_Z16ADC1_IN9_PB1_iniv+0xfc>)
 800019c:	681b      	ldr	r3, [r3, #0]
 800019e:	4a37      	ldr	r2, [pc, #220]	; (800027c <_Z16ADC1_IN9_PB1_iniv+0xfc>)
 80001a0:	f023 03c0 	bic.w	r3, r3, #192	; 0xc0
 80001a4:	6013      	str	r3, [r2, #0]
  GPIOB->CRL |= (0b00 << GPIO_CRL_CNF1_Pos);
 80001a6:	4b35      	ldr	r3, [pc, #212]	; (800027c <_Z16ADC1_IN9_PB1_iniv+0xfc>)
 80001a8:	4a34      	ldr	r2, [pc, #208]	; (800027c <_Z16ADC1_IN9_PB1_iniv+0xfc>)
 80001aa:	681b      	ldr	r3, [r3, #0]
 80001ac:	6013      	str	r3, [r2, #0]
  // Тактирование порта B
  RCC->APB2ENR |= RCC_APB2ENR_IOPBEN;
 80001ae:	4b34      	ldr	r3, [pc, #208]	; (8000280 <_Z16ADC1_IN9_PB1_iniv+0x100>)
 80001b0:	699b      	ldr	r3, [r3, #24]
 80001b2:	4a33      	ldr	r2, [pc, #204]	; (8000280 <_Z16ADC1_IN9_PB1_iniv+0x100>)
 80001b4:	f043 0308 	orr.w	r3, r3, #8
 80001b8:	6193      	str	r3, [r2, #24]

  // Тактирование АЦП 1
  RCC->APB2ENR |= RCC_APB2ENR_ADC1EN;
 80001ba:	4b31      	ldr	r3, [pc, #196]	; (8000280 <_Z16ADC1_IN9_PB1_iniv+0x100>)
 80001bc:	699b      	ldr	r3, [r3, #24]
 80001be:	4a30      	ldr	r2, [pc, #192]	; (8000280 <_Z16ADC1_IN9_PB1_iniv+0x100>)
 80001c0:	f443 7300 	orr.w	r3, r3, #512	; 0x200
 80001c4:	6193      	str	r3, [r2, #24]
  ADC1->CR2 |= ADC_CR2_ADON;
 80001c6:	4b2f      	ldr	r3, [pc, #188]	; (8000284 <_Z16ADC1_IN9_PB1_iniv+0x104>)
 80001c8:	689b      	ldr	r3, [r3, #8]
 80001ca:	4a2e      	ldr	r2, [pc, #184]	; (8000284 <_Z16ADC1_IN9_PB1_iniv+0x104>)
 80001cc:	f043 0301 	orr.w	r3, r3, #1
 80001d0:	6093      	str	r3, [r2, #8]

  ADC1->SR = 0x00;
 80001d2:	4b2c      	ldr	r3, [pc, #176]	; (8000284 <_Z16ADC1_IN9_PB1_iniv+0x104>)
 80001d4:	2200      	movs	r2, #0
 80001d6:	601a      	str	r2, [r3, #0]

  // 1.5 cycles
  ADC1->SMPR2 &= ~ADC_SMPR2_SMP9;
 80001d8:	4b2a      	ldr	r3, [pc, #168]	; (8000284 <_Z16ADC1_IN9_PB1_iniv+0x104>)
 80001da:	691b      	ldr	r3, [r3, #16]
 80001dc:	4a29      	ldr	r2, [pc, #164]	; (8000284 <_Z16ADC1_IN9_PB1_iniv+0x104>)
 80001de:	f023 5360 	bic.w	r3, r3, #939524096	; 0x38000000
 80001e2:	6113      	str	r3, [r2, #16]
  ADC1->SMPR2 |= (0b000 << ADC_SMPR2_SMP9_Pos);
 80001e4:	4b27      	ldr	r3, [pc, #156]	; (8000284 <_Z16ADC1_IN9_PB1_iniv+0x104>)
 80001e6:	4a27      	ldr	r2, [pc, #156]	; (8000284 <_Z16ADC1_IN9_PB1_iniv+0x104>)
 80001e8:	691b      	ldr	r3, [r3, #16]
 80001ea:	6113      	str	r3, [r2, #16]

  // 1 conversion
  ADC1->SQR1 &= ~ADC_SQR1_L;
 80001ec:	4b25      	ldr	r3, [pc, #148]	; (8000284 <_Z16ADC1_IN9_PB1_iniv+0x104>)
 80001ee:	6adb      	ldr	r3, [r3, #44]	; 0x2c
 80001f0:	4a24      	ldr	r2, [pc, #144]	; (8000284 <_Z16ADC1_IN9_PB1_iniv+0x104>)
 80001f2:	f423 0370 	bic.w	r3, r3, #15728640	; 0xf00000
 80001f6:	62d3      	str	r3, [r2, #44]	; 0x2c
  ADC1->SQR1 |= (0b0000 << ADC_SQR1_L_Pos);
 80001f8:	4b22      	ldr	r3, [pc, #136]	; (8000284 <_Z16ADC1_IN9_PB1_iniv+0x104>)
 80001fa:	4a22      	ldr	r2, [pc, #136]	; (8000284 <_Z16ADC1_IN9_PB1_iniv+0x104>)
 80001fc:	6adb      	ldr	r3, [r3, #44]	; 0x2c
 80001fe:	62d3      	str	r3, [r2, #44]	; 0x2c

  // 9й кАНАЛ
  ADC1->SQR3 = 0x00;
 8000200:	4b20      	ldr	r3, [pc, #128]	; (8000284 <_Z16ADC1_IN9_PB1_iniv+0x104>)
 8000202:	2200      	movs	r2, #0
 8000204:	635a      	str	r2, [r3, #52]	; 0x34
  ADC1->SQR3 |= (0b1001 << ADC_SQR3_SQ1_Pos);
 8000206:	4b1f      	ldr	r3, [pc, #124]	; (8000284 <_Z16ADC1_IN9_PB1_iniv+0x104>)
 8000208:	6b5b      	ldr	r3, [r3, #52]	; 0x34
 800020a:	4a1e      	ldr	r2, [pc, #120]	; (8000284 <_Z16ADC1_IN9_PB1_iniv+0x104>)
 800020c:	f043 0309 	orr.w	r3, r3, #9
 8000210:	6353      	str	r3, [r2, #52]	; 0x34

  ADC1->SQR2 = 0x00;
 8000212:	4b1c      	ldr	r3, [pc, #112]	; (8000284 <_Z16ADC1_IN9_PB1_iniv+0x104>)
 8000214:	2200      	movs	r2, #0
 8000216:	631a      	str	r2, [r3, #48]	; 0x30

  ADC1->SQR1 = 0x00;
 8000218:	4b1a      	ldr	r3, [pc, #104]	; (8000284 <_Z16ADC1_IN9_PB1_iniv+0x104>)
 800021a:	2200      	movs	r2, #0
 800021c:	62da      	str	r2, [r3, #44]	; 0x2c

  for (int StartUpCounter = 0; StartUpCounter <= 0x1000; StartUpCounter++)
 800021e:	2300      	movs	r3, #0
 8000220:	607b      	str	r3, [r7, #4]
 8000222:	687b      	ldr	r3, [r7, #4]
 8000224:	f5b3 5f80 	cmp.w	r3, #4096	; 0x1000
 8000228:	dc03      	bgt.n	8000232 <_Z16ADC1_IN9_PB1_iniv+0xb2>
 800022a:	687b      	ldr	r3, [r7, #4]
 800022c:	3301      	adds	r3, #1
 800022e:	607b      	str	r3, [r7, #4]
 8000230:	e7f7      	b.n	8000222 <_Z16ADC1_IN9_PB1_iniv+0xa2>
  {
  }                         // Небольшая задержка, что бы изменения вступили в силу
  ADC1->CR2 |= ADC_CR2_CAL; // запуск калибровки
 8000232:	4b14      	ldr	r3, [pc, #80]	; (8000284 <_Z16ADC1_IN9_PB1_iniv+0x104>)
 8000234:	689b      	ldr	r3, [r3, #8]
 8000236:	4a13      	ldr	r2, [pc, #76]	; (8000284 <_Z16ADC1_IN9_PB1_iniv+0x104>)
 8000238:	f043 0304 	orr.w	r3, r3, #4
 800023c:	6093      	str	r3, [r2, #8]
  while ((ADC1->CR2 & ADC_CR2_CAL) != 0); // ожидание окончания калибровки
 800023e:	4b11      	ldr	r3, [pc, #68]	; (8000284 <_Z16ADC1_IN9_PB1_iniv+0x104>)
 8000240:	689b      	ldr	r3, [r3, #8]
 8000242:	f003 0304 	and.w	r3, r3, #4
 8000246:	2b00      	cmp	r3, #0
 8000248:	bf14      	ite	ne
 800024a:	2301      	movne	r3, #1
 800024c:	2300      	moveq	r3, #0
 800024e:	b2db      	uxtb	r3, r3
 8000250:	2b00      	cmp	r3, #0
 8000252:	d000      	beq.n	8000256 <_Z16ADC1_IN9_PB1_iniv+0xd6>
 8000254:	e7f3      	b.n	800023e <_Z16ADC1_IN9_PB1_iniv+0xbe>

  // SWSTART
  ADC1->CR2 |= 
 8000256:	4b0b      	ldr	r3, [pc, #44]	; (8000284 <_Z16ADC1_IN9_PB1_iniv+0x104>)
 8000258:	689b      	ldr	r3, [r3, #8]
 800025a:	4a0a      	ldr	r2, [pc, #40]	; (8000284 <_Z16ADC1_IN9_PB1_iniv+0x104>)
 800025c:	f443 13f0 	orr.w	r3, r3, #1966080	; 0x1e0000
 8000260:	f443 7380 	orr.w	r3, r3, #256	; 0x100
 8000264:	6093      	str	r3, [r2, #8]
    | ADC_CR2_EXTTRIG 
    | ADC_CR2_EXTSEL 
    | (0b111 << ADC_CR2_EXTSEL_Pos);

  // Врубить прерывание по преобразованию
  ADC1->CR1 |= ADC_CR1_EOCIE;
 8000266:	4b07      	ldr	r3, [pc, #28]	; (8000284 <_Z16ADC1_IN9_PB1_iniv+0x104>)
 8000268:	685b      	ldr	r3, [r3, #4]
 800026a:	4a06      	ldr	r2, [pc, #24]	; (8000284 <_Z16ADC1_IN9_PB1_iniv+0x104>)
 800026c:	f043 0320 	orr.w	r3, r3, #32
 8000270:	6053      	str	r3, [r2, #4]
  //NVIC_EnableIRQ(ADC1_2_IRQn);
}
 8000272:	bf00      	nop
 8000274:	370c      	adds	r7, #12
 8000276:	46bd      	mov	sp, r7
 8000278:	bc80      	pop	{r7}
 800027a:	4770      	bx	lr
 800027c:	40010c00 	.word	0x40010c00
 8000280:	40021000 	.word	0x40021000
 8000284:	40012400 	.word	0x40012400

08000288 <_Z6PinSetv>:
  RCC->CFGR |= (RCC_CFGR_HPRE_DIV1);
  */
}

void PinSet()
{
 8000288:	b480      	push	{r7}
 800028a:	af00      	add	r7, sp, #0
  // Тактирование порта C
  RCC->APB2ENR |= (RCC_APB2ENR_IOPCEN);
 800028c:	4b0f      	ldr	r3, [pc, #60]	; (80002cc <_Z6PinSetv+0x44>)
 800028e:	699b      	ldr	r3, [r3, #24]
 8000290:	4a0e      	ldr	r2, [pc, #56]	; (80002cc <_Z6PinSetv+0x44>)
 8000292:	f043 0310 	orr.w	r3, r3, #16
 8000296:	6193      	str	r3, [r2, #24]
  // Output mode, max speed 50 MHz
  GPIOC->CRH &= ~(GPIO_CRH_MODE13);
 8000298:	4b0d      	ldr	r3, [pc, #52]	; (80002d0 <_Z6PinSetv+0x48>)
 800029a:	685b      	ldr	r3, [r3, #4]
 800029c:	4a0c      	ldr	r2, [pc, #48]	; (80002d0 <_Z6PinSetv+0x48>)
 800029e:	f423 1340 	bic.w	r3, r3, #3145728	; 0x300000
 80002a2:	6053      	str	r3, [r2, #4]
  GPIOC->CRH |= (0b11 << GPIO_CRH_MODE13_Pos);
 80002a4:	4b0a      	ldr	r3, [pc, #40]	; (80002d0 <_Z6PinSetv+0x48>)
 80002a6:	685b      	ldr	r3, [r3, #4]
 80002a8:	4a09      	ldr	r2, [pc, #36]	; (80002d0 <_Z6PinSetv+0x48>)
 80002aa:	f443 1340 	orr.w	r3, r3, #3145728	; 0x300000
 80002ae:	6053      	str	r3, [r2, #4]
  // General purpose output push-pull
  GPIOC->CRH &= ~(GPIO_CRH_CNF13);
 80002b0:	4b07      	ldr	r3, [pc, #28]	; (80002d0 <_Z6PinSetv+0x48>)
 80002b2:	685b      	ldr	r3, [r3, #4]
 80002b4:	4a06      	ldr	r2, [pc, #24]	; (80002d0 <_Z6PinSetv+0x48>)
 80002b6:	f423 0340 	bic.w	r3, r3, #12582912	; 0xc00000
 80002ba:	6053      	str	r3, [r2, #4]
  GPIOC->CRH |= (0b00 << GPIO_CRH_CNF13_Pos);
 80002bc:	4b04      	ldr	r3, [pc, #16]	; (80002d0 <_Z6PinSetv+0x48>)
 80002be:	4a04      	ldr	r2, [pc, #16]	; (80002d0 <_Z6PinSetv+0x48>)
 80002c0:	685b      	ldr	r3, [r3, #4]
 80002c2:	6053      	str	r3, [r2, #4]
}
 80002c4:	bf00      	nop
 80002c6:	46bd      	mov	sp, r7
 80002c8:	bc80      	pop	{r7}
 80002ca:	4770      	bx	lr
 80002cc:	40021000 	.word	0x40021000
 80002d0:	40011000 	.word	0x40011000

080002d4 <__NVIC_EnableIRQ>:
  \details Enables a device specific interrupt in the NVIC interrupt controller.
  \param [in]      IRQn  Device specific interrupt number.
  \note    IRQn must not be negative.
 */
__STATIC_INLINE void __NVIC_EnableIRQ(IRQn_Type IRQn)
{
 80002d4:	b480      	push	{r7}
 80002d6:	b083      	sub	sp, #12
 80002d8:	af00      	add	r7, sp, #0
 80002da:	4603      	mov	r3, r0
 80002dc:	71fb      	strb	r3, [r7, #7]
  if ((int32_t)(IRQn) >= 0)
 80002de:	f997 3007 	ldrsb.w	r3, [r7, #7]
 80002e2:	2b00      	cmp	r3, #0
 80002e4:	db0b      	blt.n	80002fe <__NVIC_EnableIRQ+0x2a>
  {
    NVIC->ISER[(((uint32_t)IRQn) >> 5UL)] = (uint32_t)(1UL << (((uint32_t)IRQn) & 0x1FUL));
 80002e6:	79fb      	ldrb	r3, [r7, #7]
 80002e8:	f003 021f 	and.w	r2, r3, #31
 80002ec:	4906      	ldr	r1, [pc, #24]	; (8000308 <__NVIC_EnableIRQ+0x34>)
 80002ee:	f997 3007 	ldrsb.w	r3, [r7, #7]
 80002f2:	095b      	lsrs	r3, r3, #5
 80002f4:	2001      	movs	r0, #1
 80002f6:	fa00 f202 	lsl.w	r2, r0, r2
 80002fa:	f841 2023 	str.w	r2, [r1, r3, lsl #2]
  }
}
 80002fe:	bf00      	nop
 8000300:	370c      	adds	r7, #12
 8000302:	46bd      	mov	sp, r7
 8000304:	bc80      	pop	{r7}
 8000306:	4770      	bx	lr
 8000308:	e000e100 	.word	0xe000e100

0800030c <main>:
#include <DmaControl/DmaControl.h>
#include <UartWrap/Uart.h>

int i = 0;
int main(void)
{
 800030c:	b580      	push	{r7, lr}
 800030e:	b082      	sub	sp, #8
 8000310:	af00      	add	r7, sp, #0
   * @brief   Start HSI clock
   *
   * @details Returns 1 if launch is successful
   * @details HSE not divided for PLL entry
   */
  ClockControl::HSE::Start_HSE();
 8000312:	f000 fa97 	bl	8000844 <_ZN12ClockControl3HSE9Start_HSEEv>
  ClockControl::HSE::PLL::Clean_PLLXTPRE();
 8000316:	f000 facd 	bl	80008b4 <_ZN12ClockControl3HSE3PLL14Clean_PLLXTPREEv>
   * @brief   PLL clocking from HSE
   *          Set PLL as system clock
   * @details Written only when PLL is disabled
   * @details On successful launch pll returns 1
   */
  ClockControl::HSE::PLL::Set_PLLSRC_HSE();
 800031a:	f000 fabd 	bl	8000898 <_ZN12ClockControl3HSE3PLL14Set_PLLSRC_HSEEv>
  ClockControl::HSE::PLL::Set_PLL_MUL(6);
 800031e:	2006      	movs	r0, #6
 8000320:	f000 fad4 	bl	80008cc <_ZN12ClockControl3HSE3PLL11Set_PLL_MULEt>
  ClockControl::HSE::PLL::Start_PLL();
 8000324:	f000 fafa 	bl	800091c <_ZN12ClockControl3HSE3PLL9Start_PLLEv>
  ClockControl::HSE::PLL::Set_SW_PLL();
 8000328:	f000 fb22 	bl	8000970 <_ZN12ClockControl3HSE3PLL10Set_SW_PLLEv>
   * @details APB1 timers                   - 48Mhz
   * @details APB2 peripherals              - 48Mhz
   * @details APB1 timers                   - 48Mhz
   * @details To ADC                        - 12Mhz
   */
  ClockControl::Set_AHB_Prescaler(1);
 800032c:	2001      	movs	r0, #1
 800032e:	f000 f90f 	bl	8000550 <_ZN12ClockControl17Set_AHB_PrescalerEt>
  ClockControl::Set_APB1_Prescaler(2);
 8000332:	2002      	movs	r0, #2
 8000334:	f000 f992 	bl	800065c <_ZN12ClockControl18Set_APB1_PrescalerEt>
  ClockControl::Set_APB2_Prescaler(1);
 8000338:	2001      	movs	r0, #1
 800033a:	f000 f9e9 	bl	8000710 <_ZN12ClockControl18Set_APB2_PrescalerEt>
  ClockControl::Set_ADC_Prescaler(4);
 800033e:	2004      	movs	r0, #4
 8000340:	f000 fa40 	bl	80007c4 <_ZN12ClockControl17Set_ADC_PrescalerEt>
  DMA_Ch1_cfg.TCIE    = TCIE_Enabled;
  DMA_Ch1_cfg.EN      = EN_Enabled;
  DmaControl Dma_Ch1(DMA1, DMA1_Channel1, &DMA_Ch1_cfg);
  */

  PinSet();
 8000344:	f7ff ffa0 	bl	8000288 <_Z6PinSetv>
  Uart2_Ini(USART2, 24000000, 9600);
 8000348:	f44f 5216 	mov.w	r2, #9600	; 0x2580
 800034c:	491d      	ldr	r1, [pc, #116]	; (80003c4 <main+0xb8>)
 800034e:	481e      	ldr	r0, [pc, #120]	; (80003c8 <main+0xbc>)
 8000350:	f000 fb72 	bl	8000a38 <_Z9Uart2_IniP13USART_TypeDefli>
  ADC1_IN9_PB1_ini();
 8000354:	f7ff ff14 	bl	8000180 <_Z16ADC1_IN9_PB1_iniv>

  while (1)
  {
    RCC->AHBENR |= RCC_AHBENR_DMA1EN;
 8000358:	4b1c      	ldr	r3, [pc, #112]	; (80003cc <main+0xc0>)
 800035a:	695b      	ldr	r3, [r3, #20]
 800035c:	4a1b      	ldr	r2, [pc, #108]	; (80003cc <main+0xc0>)
 800035e:	f043 0301 	orr.w	r3, r3, #1
 8000362:	6153      	str	r3, [r2, #20]
    DMA1_Channel1->CNDTR = 1;                  // сколько кадров данных подлежит передаче
 8000364:	4b1a      	ldr	r3, [pc, #104]	; (80003d0 <main+0xc4>)
 8000366:	2201      	movs	r2, #1
 8000368:	605a      	str	r2, [r3, #4]
    DMA1_Channel1->CMAR = (uint32_t)&i;        // адрес памяти
 800036a:	4b19      	ldr	r3, [pc, #100]	; (80003d0 <main+0xc4>)
 800036c:	4a19      	ldr	r2, [pc, #100]	; (80003d4 <main+0xc8>)
 800036e:	60da      	str	r2, [r3, #12]
    DMA1_Channel1->CPAR = (uint32_t)&ADC1->DR; // Загружаем адрес регистра DR
 8000370:	4b17      	ldr	r3, [pc, #92]	; (80003d0 <main+0xc4>)
 8000372:	4a19      	ldr	r2, [pc, #100]	; (80003d8 <main+0xcc>)
 8000374:	609a      	str	r2, [r3, #8]
    DMA1_Channel1->CCR |= DMA_CCR_PSIZE_0    // размерность данных периферии 16 бит
 8000376:	4b16      	ldr	r3, [pc, #88]	; (80003d0 <main+0xc4>)
 8000378:	681b      	ldr	r3, [r3, #0]
 800037a:	4a15      	ldr	r2, [pc, #84]	; (80003d0 <main+0xc4>)
 800037c:	f443 63a0 	orr.w	r3, r3, #1280	; 0x500
 8000380:	6013      	str	r3, [r2, #0]
                          | DMA_CCR_MSIZE_0; // размерность данных памяти 16 bit
    NVIC_EnableIRQ(DMA1_Channel1_IRQn);
 8000382:	200b      	movs	r0, #11
 8000384:	f7ff ffa6 	bl	80002d4 <__NVIC_EnableIRQ>

    ADC1->CR2 |= ADC_CR2_ADON;
 8000388:	4b14      	ldr	r3, [pc, #80]	; (80003dc <main+0xd0>)
 800038a:	689b      	ldr	r3, [r3, #8]
 800038c:	4a13      	ldr	r2, [pc, #76]	; (80003dc <main+0xd0>)
 800038e:	f043 0301 	orr.w	r3, r3, #1
 8000392:	6093      	str	r3, [r2, #8]
    ADC1->CR2 |= ADC_CR2_SWSTART;
 8000394:	4b11      	ldr	r3, [pc, #68]	; (80003dc <main+0xd0>)
 8000396:	689b      	ldr	r3, [r3, #8]
 8000398:	4a10      	ldr	r2, [pc, #64]	; (80003dc <main+0xd0>)
 800039a:	f443 0380 	orr.w	r3, r3, #4194304	; 0x400000
 800039e:	6093      	str	r3, [r2, #8]
    DMA1_Channel1->CCR |= DMA_CCR_TCIE | DMA_CCR_TEIE | DMA_CCR_EN;
 80003a0:	4b0b      	ldr	r3, [pc, #44]	; (80003d0 <main+0xc4>)
 80003a2:	681b      	ldr	r3, [r3, #0]
 80003a4:	4a0a      	ldr	r2, [pc, #40]	; (80003d0 <main+0xc4>)
 80003a6:	f043 030b 	orr.w	r3, r3, #11
 80003aa:	6013      	str	r3, [r2, #0]

    for (int i = 0; i != 10000; i++)
 80003ac:	2300      	movs	r3, #0
 80003ae:	607b      	str	r3, [r7, #4]
 80003b0:	687b      	ldr	r3, [r7, #4]
 80003b2:	f242 7210 	movw	r2, #10000	; 0x2710
 80003b6:	4293      	cmp	r3, r2
 80003b8:	d0ce      	beq.n	8000358 <main+0x4c>
 80003ba:	687b      	ldr	r3, [r7, #4]
 80003bc:	3301      	adds	r3, #1
 80003be:	607b      	str	r3, [r7, #4]
 80003c0:	e7f6      	b.n	80003b0 <main+0xa4>
 80003c2:	bf00      	nop
 80003c4:	016e3600 	.word	0x016e3600
 80003c8:	40004400 	.word	0x40004400
 80003cc:	40021000 	.word	0x40021000
 80003d0:	40020008 	.word	0x40020008
 80003d4:	20000084 	.word	0x20000084
 80003d8:	4001244c 	.word	0x4001244c
 80003dc:	40012400 	.word	0x40012400

080003e0 <ADC1_2_IRQHandler>:
extern "C"
{
#endif

    void ADC1_2_IRQHandler()
    {
 80003e0:	b580      	push	{r7, lr}
 80003e2:	b09a      	sub	sp, #104	; 0x68
 80003e4:	af00      	add	r7, sp, #0
        if (ADC1->SR & ADC_SR_EOC)
 80003e6:	4b11      	ldr	r3, [pc, #68]	; (800042c <ADC1_2_IRQHandler+0x4c>)
 80003e8:	681b      	ldr	r3, [r3, #0]
 80003ea:	f003 0302 	and.w	r3, r3, #2
 80003ee:	2b00      	cmp	r3, #0
 80003f0:	bf14      	ite	ne
 80003f2:	2301      	movne	r3, #1
 80003f4:	2300      	moveq	r3, #0
 80003f6:	b2db      	uxtb	r3, r3
 80003f8:	2b00      	cmp	r3, #0
 80003fa:	d00f      	beq.n	800041c <ADC1_2_IRQHandler+0x3c>
        {
            char buf[100];
            sprintf(buf, " ADC1_2_IRQHandler-> %ld \n\r", (ADC1->DR) * 3000 / 4096 );
 80003fc:	4b0b      	ldr	r3, [pc, #44]	; (800042c <ADC1_2_IRQHandler+0x4c>)
 80003fe:	6cdb      	ldr	r3, [r3, #76]	; 0x4c
 8000400:	f640 32b8 	movw	r2, #3000	; 0xbb8
 8000404:	fb02 f303 	mul.w	r3, r2, r3
 8000408:	0b1a      	lsrs	r2, r3, #12
 800040a:	1d3b      	adds	r3, r7, #4
 800040c:	4908      	ldr	r1, [pc, #32]	; (8000430 <ADC1_2_IRQHandler+0x50>)
 800040e:	4618      	mov	r0, r3
 8000410:	f000 fc0a 	bl	8000c28 <siprintf>
            Uart2_StrWrite(buf);
 8000414:	1d3b      	adds	r3, r7, #4
 8000416:	4618      	mov	r0, r3
 8000418:	f000 fad4 	bl	80009c4 <_Z14Uart2_StrWritePc>
        }

        ADC1->SR = 0x00;
 800041c:	4b03      	ldr	r3, [pc, #12]	; (800042c <ADC1_2_IRQHandler+0x4c>)
 800041e:	2200      	movs	r2, #0
 8000420:	601a      	str	r2, [r3, #0]
    }
 8000422:	bf00      	nop
 8000424:	3768      	adds	r7, #104	; 0x68
 8000426:	46bd      	mov	sp, r7
 8000428:	bd80      	pop	{r7, pc}
 800042a:	bf00      	nop
 800042c:	40012400 	.word	0x40012400
 8000430:	08001544 	.word	0x08001544

08000434 <DMA1_Channel1_IRQHandler>:

    void DMA1_Channel1_IRQHandler(void)
    {
 8000434:	b580      	push	{r7, lr}
 8000436:	b09a      	sub	sp, #104	; 0x68
 8000438:	af00      	add	r7, sp, #0
        GPIOC->ODR ^= GPIO_ODR_ODR13;
 800043a:	4b14      	ldr	r3, [pc, #80]	; (800048c <DMA1_Channel1_IRQHandler+0x58>)
 800043c:	68db      	ldr	r3, [r3, #12]
 800043e:	4a13      	ldr	r2, [pc, #76]	; (800048c <DMA1_Channel1_IRQHandler+0x58>)
 8000440:	f483 5300 	eor.w	r3, r3, #8192	; 0x2000
 8000444:	60d3      	str	r3, [r2, #12]
        char buf[100];
        sprintf(buf, " DMAChannel1_IRQHandler-> %d \n\r", (i) * 3000 / 4096 );
 8000446:	4b12      	ldr	r3, [pc, #72]	; (8000490 <DMA1_Channel1_IRQHandler+0x5c>)
 8000448:	681b      	ldr	r3, [r3, #0]
 800044a:	f640 32b8 	movw	r2, #3000	; 0xbb8
 800044e:	fb02 f303 	mul.w	r3, r2, r3
 8000452:	2b00      	cmp	r3, #0
 8000454:	da01      	bge.n	800045a <DMA1_Channel1_IRQHandler+0x26>
 8000456:	f603 73ff 	addw	r3, r3, #4095	; 0xfff
 800045a:	131b      	asrs	r3, r3, #12
 800045c:	461a      	mov	r2, r3
 800045e:	1d3b      	adds	r3, r7, #4
 8000460:	490c      	ldr	r1, [pc, #48]	; (8000494 <DMA1_Channel1_IRQHandler+0x60>)
 8000462:	4618      	mov	r0, r3
 8000464:	f000 fbe0 	bl	8000c28 <siprintf>
        Uart2_StrWrite(buf);
 8000468:	1d3b      	adds	r3, r7, #4
 800046a:	4618      	mov	r0, r3
 800046c:	f000 faaa 	bl	80009c4 <_Z14Uart2_StrWritePc>
        
        DMA1->ISR  = 0x00;
 8000470:	4b09      	ldr	r3, [pc, #36]	; (8000498 <DMA1_Channel1_IRQHandler+0x64>)
 8000472:	2200      	movs	r2, #0
 8000474:	601a      	str	r2, [r3, #0]
        DMA1->IFCR = 0x00;
 8000476:	4b08      	ldr	r3, [pc, #32]	; (8000498 <DMA1_Channel1_IRQHandler+0x64>)
 8000478:	2200      	movs	r2, #0
 800047a:	605a      	str	r2, [r3, #4]
        DMA1_Channel1->CCR = 0x00;
 800047c:	4b07      	ldr	r3, [pc, #28]	; (800049c <DMA1_Channel1_IRQHandler+0x68>)
 800047e:	2200      	movs	r2, #0
 8000480:	601a      	str	r2, [r3, #0]
    }
 8000482:	bf00      	nop
 8000484:	3768      	adds	r7, #104	; 0x68
 8000486:	46bd      	mov	sp, r7
 8000488:	bd80      	pop	{r7, pc}
 800048a:	bf00      	nop
 800048c:	40011000 	.word	0x40011000
 8000490:	20000084 	.word	0x20000084
 8000494:	08001560 	.word	0x08001560
 8000498:	40020000 	.word	0x40020000
 800049c:	40020008 	.word	0x40020008

080004a0 <TIM1_UP_IRQHandler>:

    void TIM1_UP_IRQHandler(void)
    {
 80004a0:	b480      	push	{r7}
 80004a2:	af00      	add	r7, sp, #0
        GPIOC->ODR |= (GPIO_ODR_ODR13);
 80004a4:	4b0a      	ldr	r3, [pc, #40]	; (80004d0 <TIM1_UP_IRQHandler+0x30>)
 80004a6:	68db      	ldr	r3, [r3, #12]
 80004a8:	4a09      	ldr	r2, [pc, #36]	; (80004d0 <TIM1_UP_IRQHandler+0x30>)
 80004aa:	f443 5300 	orr.w	r3, r3, #8192	; 0x2000
 80004ae:	60d3      	str	r3, [r2, #12]
        GPIOC->ODR &= ~(GPIO_ODR_ODR13);
 80004b0:	4b07      	ldr	r3, [pc, #28]	; (80004d0 <TIM1_UP_IRQHandler+0x30>)
 80004b2:	68db      	ldr	r3, [r3, #12]
 80004b4:	4a06      	ldr	r2, [pc, #24]	; (80004d0 <TIM1_UP_IRQHandler+0x30>)
 80004b6:	f423 5300 	bic.w	r3, r3, #8192	; 0x2000
 80004ba:	60d3      	str	r3, [r2, #12]
        TIM1->SR &= ~TIM_SR_UIF;
 80004bc:	4b05      	ldr	r3, [pc, #20]	; (80004d4 <TIM1_UP_IRQHandler+0x34>)
 80004be:	691b      	ldr	r3, [r3, #16]
 80004c0:	4a04      	ldr	r2, [pc, #16]	; (80004d4 <TIM1_UP_IRQHandler+0x34>)
 80004c2:	f023 0301 	bic.w	r3, r3, #1
 80004c6:	6113      	str	r3, [r2, #16]
    }
 80004c8:	bf00      	nop
 80004ca:	46bd      	mov	sp, r7
 80004cc:	bc80      	pop	{r7}
 80004ce:	4770      	bx	lr
 80004d0:	40011000 	.word	0x40011000
 80004d4:	40012c00 	.word	0x40012c00

080004d8 <_sbrk>:
 *
 * @param incr Memory size
 * @return Pointer to allocated memory
 */
void *_sbrk(ptrdiff_t incr)
{
 80004d8:	b580      	push	{r7, lr}
 80004da:	b086      	sub	sp, #24
 80004dc:	af00      	add	r7, sp, #0
 80004de:	6078      	str	r0, [r7, #4]
  extern uint8_t _end; /* Symbol defined in the linker script */
  extern uint8_t _estack; /* Symbol defined in the linker script */
  extern uint32_t _Min_Stack_Size; /* Symbol defined in the linker script */
  const uint32_t stack_limit = (uint32_t)&_estack - (uint32_t)&_Min_Stack_Size;
 80004e0:	4a14      	ldr	r2, [pc, #80]	; (8000534 <_sbrk+0x5c>)
 80004e2:	4b15      	ldr	r3, [pc, #84]	; (8000538 <_sbrk+0x60>)
 80004e4:	1ad3      	subs	r3, r2, r3
 80004e6:	617b      	str	r3, [r7, #20]
  const uint8_t *max_heap = (uint8_t *)stack_limit;
 80004e8:	697b      	ldr	r3, [r7, #20]
 80004ea:	613b      	str	r3, [r7, #16]
  uint8_t *prev_heap_end;

  /* Initialize heap end at first call */
  if (NULL == __sbrk_heap_end)
 80004ec:	4b13      	ldr	r3, [pc, #76]	; (800053c <_sbrk+0x64>)
 80004ee:	681b      	ldr	r3, [r3, #0]
 80004f0:	2b00      	cmp	r3, #0
 80004f2:	d102      	bne.n	80004fa <_sbrk+0x22>
  {
    __sbrk_heap_end = &_end;
 80004f4:	4b11      	ldr	r3, [pc, #68]	; (800053c <_sbrk+0x64>)
 80004f6:	4a12      	ldr	r2, [pc, #72]	; (8000540 <_sbrk+0x68>)
 80004f8:	601a      	str	r2, [r3, #0]
  }

  /* Protect heap from growing into the reserved MSP stack */
  if (__sbrk_heap_end + incr > max_heap)
 80004fa:	4b10      	ldr	r3, [pc, #64]	; (800053c <_sbrk+0x64>)
 80004fc:	681a      	ldr	r2, [r3, #0]
 80004fe:	687b      	ldr	r3, [r7, #4]
 8000500:	4413      	add	r3, r2
 8000502:	693a      	ldr	r2, [r7, #16]
 8000504:	429a      	cmp	r2, r3
 8000506:	d207      	bcs.n	8000518 <_sbrk+0x40>
  {
    errno = ENOMEM;
 8000508:	f000 fb64 	bl	8000bd4 <__errno>
 800050c:	4603      	mov	r3, r0
 800050e:	220c      	movs	r2, #12
 8000510:	601a      	str	r2, [r3, #0]
    return (void *)-1;
 8000512:	f04f 33ff 	mov.w	r3, #4294967295
 8000516:	e009      	b.n	800052c <_sbrk+0x54>
  }

  prev_heap_end = __sbrk_heap_end;
 8000518:	4b08      	ldr	r3, [pc, #32]	; (800053c <_sbrk+0x64>)
 800051a:	681b      	ldr	r3, [r3, #0]
 800051c:	60fb      	str	r3, [r7, #12]
  __sbrk_heap_end += incr;
 800051e:	4b07      	ldr	r3, [pc, #28]	; (800053c <_sbrk+0x64>)
 8000520:	681a      	ldr	r2, [r3, #0]
 8000522:	687b      	ldr	r3, [r7, #4]
 8000524:	4413      	add	r3, r2
 8000526:	4a05      	ldr	r2, [pc, #20]	; (800053c <_sbrk+0x64>)
 8000528:	6013      	str	r3, [r2, #0]

  return (void *)prev_heap_end;
 800052a:	68fb      	ldr	r3, [r7, #12]
}
 800052c:	4618      	mov	r0, r3
 800052e:	3718      	adds	r7, #24
 8000530:	46bd      	mov	sp, r7
 8000532:	bd80      	pop	{r7, pc}
 8000534:	20005000 	.word	0x20005000
 8000538:	00000400 	.word	0x00000400
 800053c:	20000088 	.word	0x20000088
 8000540:	20000108 	.word	0x20000108

08000544 <SystemInit>:
  * @note   This function should be used only after reset.
  * @param  None
  * @retval None
  */
void SystemInit (void)
{
 8000544:	b480      	push	{r7}
 8000546:	af00      	add	r7, sp, #0

  /* Configure the Vector Table location -------------------------------------*/
#if defined(USER_VECT_TAB_ADDRESS)
  SCB->VTOR = VECT_TAB_BASE_ADDRESS | VECT_TAB_OFFSET; /* Vector Table Relocation in Internal SRAM. */
#endif /* USER_VECT_TAB_ADDRESS */
}
 8000548:	bf00      	nop
 800054a:	46bd      	mov	sp, r7
 800054c:	bc80      	pop	{r7}
 800054e:	4770      	bx	lr

08000550 <_ZN12ClockControl17Set_AHB_PrescalerEt>:
	 * Use default setting
	 * 8Mhz HSI
	 */
}
void ClockControl::Set_AHB_Prescaler(unsigned short AHB_Prescaler_Value)
{
 8000550:	b480      	push	{r7}
 8000552:	b083      	sub	sp, #12
 8000554:	af00      	add	r7, sp, #0
 8000556:	4603      	mov	r3, r0
 8000558:	80fb      	strh	r3, [r7, #6]
	switch (AHB_Prescaler_Value)
 800055a:	88fb      	ldrh	r3, [r7, #6]
 800055c:	f5b3 7f00 	cmp.w	r3, #512	; 0x200
 8000560:	d068      	beq.n	8000634 <_ZN12ClockControl17Set_AHB_PrescalerEt+0xe4>
 8000562:	f5b3 7f00 	cmp.w	r3, #512	; 0x200
 8000566:	dc6c      	bgt.n	8000642 <_ZN12ClockControl17Set_AHB_PrescalerEt+0xf2>
 8000568:	f5b3 7f80 	cmp.w	r3, #256	; 0x100
 800056c:	d05b      	beq.n	8000626 <_ZN12ClockControl17Set_AHB_PrescalerEt+0xd6>
 800056e:	f5b3 7f80 	cmp.w	r3, #256	; 0x100
 8000572:	dc66      	bgt.n	8000642 <_ZN12ClockControl17Set_AHB_PrescalerEt+0xf2>
 8000574:	2b80      	cmp	r3, #128	; 0x80
 8000576:	d04f      	beq.n	8000618 <_ZN12ClockControl17Set_AHB_PrescalerEt+0xc8>
 8000578:	2b80      	cmp	r3, #128	; 0x80
 800057a:	dc62      	bgt.n	8000642 <_ZN12ClockControl17Set_AHB_PrescalerEt+0xf2>
 800057c:	2b10      	cmp	r3, #16
 800057e:	dc25      	bgt.n	80005cc <_ZN12ClockControl17Set_AHB_PrescalerEt+0x7c>
 8000580:	2b02      	cmp	r3, #2
 8000582:	db5e      	blt.n	8000642 <_ZN12ClockControl17Set_AHB_PrescalerEt+0xf2>
 8000584:	3b02      	subs	r3, #2
 8000586:	2b0e      	cmp	r3, #14
 8000588:	d85b      	bhi.n	8000642 <_ZN12ClockControl17Set_AHB_PrescalerEt+0xf2>
 800058a:	a201      	add	r2, pc, #4	; (adr r2, 8000590 <_ZN12ClockControl17Set_AHB_PrescalerEt+0x40>)
 800058c:	f852 f023 	ldr.w	pc, [r2, r3, lsl #2]
 8000590:	080005d3 	.word	0x080005d3
 8000594:	08000643 	.word	0x08000643
 8000598:	080005e1 	.word	0x080005e1
 800059c:	08000643 	.word	0x08000643
 80005a0:	08000643 	.word	0x08000643
 80005a4:	08000643 	.word	0x08000643
 80005a8:	080005ef 	.word	0x080005ef
 80005ac:	08000643 	.word	0x08000643
 80005b0:	08000643 	.word	0x08000643
 80005b4:	08000643 	.word	0x08000643
 80005b8:	08000643 	.word	0x08000643
 80005bc:	08000643 	.word	0x08000643
 80005c0:	08000643 	.word	0x08000643
 80005c4:	08000643 	.word	0x08000643
 80005c8:	080005fd 	.word	0x080005fd
 80005cc:	2b40      	cmp	r3, #64	; 0x40
 80005ce:	d01c      	beq.n	800060a <_ZN12ClockControl17Set_AHB_PrescalerEt+0xba>
 80005d0:	e037      	b.n	8000642 <_ZN12ClockControl17Set_AHB_PrescalerEt+0xf2>
	{
	case 2:
		RCC->CFGR |= RCC_CFGR_HPRE_DIV2;
 80005d2:	4b21      	ldr	r3, [pc, #132]	; (8000658 <_ZN12ClockControl17Set_AHB_PrescalerEt+0x108>)
 80005d4:	685b      	ldr	r3, [r3, #4]
 80005d6:	4a20      	ldr	r2, [pc, #128]	; (8000658 <_ZN12ClockControl17Set_AHB_PrescalerEt+0x108>)
 80005d8:	f043 0380 	orr.w	r3, r3, #128	; 0x80
 80005dc:	6053      	str	r3, [r2, #4]
		break;
 80005de:	e035      	b.n	800064c <_ZN12ClockControl17Set_AHB_PrescalerEt+0xfc>
	case 4:
		RCC->CFGR |= RCC_CFGR_HPRE_DIV4;
 80005e0:	4b1d      	ldr	r3, [pc, #116]	; (8000658 <_ZN12ClockControl17Set_AHB_PrescalerEt+0x108>)
 80005e2:	685b      	ldr	r3, [r3, #4]
 80005e4:	4a1c      	ldr	r2, [pc, #112]	; (8000658 <_ZN12ClockControl17Set_AHB_PrescalerEt+0x108>)
 80005e6:	f043 0390 	orr.w	r3, r3, #144	; 0x90
 80005ea:	6053      	str	r3, [r2, #4]
		break;
 80005ec:	e02e      	b.n	800064c <_ZN12ClockControl17Set_AHB_PrescalerEt+0xfc>
	case 8:
		RCC->CFGR |= RCC_CFGR_HPRE_DIV8;
 80005ee:	4b1a      	ldr	r3, [pc, #104]	; (8000658 <_ZN12ClockControl17Set_AHB_PrescalerEt+0x108>)
 80005f0:	685b      	ldr	r3, [r3, #4]
 80005f2:	4a19      	ldr	r2, [pc, #100]	; (8000658 <_ZN12ClockControl17Set_AHB_PrescalerEt+0x108>)
 80005f4:	f043 03a0 	orr.w	r3, r3, #160	; 0xa0
 80005f8:	6053      	str	r3, [r2, #4]
		break;
 80005fa:	e027      	b.n	800064c <_ZN12ClockControl17Set_AHB_PrescalerEt+0xfc>
	case 16:
		RCC->CFGR |= RCC_CFGR_HPRE_DIV16;
 80005fc:	4b16      	ldr	r3, [pc, #88]	; (8000658 <_ZN12ClockControl17Set_AHB_PrescalerEt+0x108>)
 80005fe:	685b      	ldr	r3, [r3, #4]
 8000600:	4a15      	ldr	r2, [pc, #84]	; (8000658 <_ZN12ClockControl17Set_AHB_PrescalerEt+0x108>)
 8000602:	f043 03b0 	orr.w	r3, r3, #176	; 0xb0
 8000606:	6053      	str	r3, [r2, #4]
		break;
 8000608:	e020      	b.n	800064c <_ZN12ClockControl17Set_AHB_PrescalerEt+0xfc>
	case 64:
		RCC->CFGR |= RCC_CFGR_HPRE_DIV64;
 800060a:	4b13      	ldr	r3, [pc, #76]	; (8000658 <_ZN12ClockControl17Set_AHB_PrescalerEt+0x108>)
 800060c:	685b      	ldr	r3, [r3, #4]
 800060e:	4a12      	ldr	r2, [pc, #72]	; (8000658 <_ZN12ClockControl17Set_AHB_PrescalerEt+0x108>)
 8000610:	f043 03c0 	orr.w	r3, r3, #192	; 0xc0
 8000614:	6053      	str	r3, [r2, #4]
		break;
 8000616:	e019      	b.n	800064c <_ZN12ClockControl17Set_AHB_PrescalerEt+0xfc>
	case 128:
		RCC->CFGR |= RCC_CFGR_HPRE_DIV128;
 8000618:	4b0f      	ldr	r3, [pc, #60]	; (8000658 <_ZN12ClockControl17Set_AHB_PrescalerEt+0x108>)
 800061a:	685b      	ldr	r3, [r3, #4]
 800061c:	4a0e      	ldr	r2, [pc, #56]	; (8000658 <_ZN12ClockControl17Set_AHB_PrescalerEt+0x108>)
 800061e:	f043 03d0 	orr.w	r3, r3, #208	; 0xd0
 8000622:	6053      	str	r3, [r2, #4]
		break;
 8000624:	e012      	b.n	800064c <_ZN12ClockControl17Set_AHB_PrescalerEt+0xfc>
	case 256:
		RCC->CFGR |= RCC_CFGR_HPRE_DIV256;
 8000626:	4b0c      	ldr	r3, [pc, #48]	; (8000658 <_ZN12ClockControl17Set_AHB_PrescalerEt+0x108>)
 8000628:	685b      	ldr	r3, [r3, #4]
 800062a:	4a0b      	ldr	r2, [pc, #44]	; (8000658 <_ZN12ClockControl17Set_AHB_PrescalerEt+0x108>)
 800062c:	f043 03e0 	orr.w	r3, r3, #224	; 0xe0
 8000630:	6053      	str	r3, [r2, #4]
		break;
 8000632:	e00b      	b.n	800064c <_ZN12ClockControl17Set_AHB_PrescalerEt+0xfc>
	case 512:
		RCC->CFGR |= RCC_CFGR_HPRE_DIV512;
 8000634:	4b08      	ldr	r3, [pc, #32]	; (8000658 <_ZN12ClockControl17Set_AHB_PrescalerEt+0x108>)
 8000636:	685b      	ldr	r3, [r3, #4]
 8000638:	4a07      	ldr	r2, [pc, #28]	; (8000658 <_ZN12ClockControl17Set_AHB_PrescalerEt+0x108>)
 800063a:	f043 03f0 	orr.w	r3, r3, #240	; 0xf0
 800063e:	6053      	str	r3, [r2, #4]
		break;
 8000640:	e004      	b.n	800064c <_ZN12ClockControl17Set_AHB_PrescalerEt+0xfc>
	default:
		RCC->CFGR |= RCC_CFGR_HPRE_DIV1;
 8000642:	4b05      	ldr	r3, [pc, #20]	; (8000658 <_ZN12ClockControl17Set_AHB_PrescalerEt+0x108>)
 8000644:	4a04      	ldr	r2, [pc, #16]	; (8000658 <_ZN12ClockControl17Set_AHB_PrescalerEt+0x108>)
 8000646:	685b      	ldr	r3, [r3, #4]
 8000648:	6053      	str	r3, [r2, #4]
	}
}
 800064a:	bf00      	nop
 800064c:	bf00      	nop
 800064e:	370c      	adds	r7, #12
 8000650:	46bd      	mov	sp, r7
 8000652:	bc80      	pop	{r7}
 8000654:	4770      	bx	lr
 8000656:	bf00      	nop
 8000658:	40021000 	.word	0x40021000

0800065c <_ZN12ClockControl18Set_APB1_PrescalerEt>:
void ClockControl::Set_APB1_Prescaler(unsigned short APB1_Prescaler_Value)
{
 800065c:	b480      	push	{r7}
 800065e:	b083      	sub	sp, #12
 8000660:	af00      	add	r7, sp, #0
 8000662:	4603      	mov	r3, r0
 8000664:	80fb      	strh	r3, [r7, #6]
	switch (APB1_Prescaler_Value)
 8000666:	88fb      	ldrh	r3, [r7, #6]
 8000668:	3b01      	subs	r3, #1
 800066a:	2b0f      	cmp	r3, #15
 800066c:	d843      	bhi.n	80006f6 <_ZN12ClockControl18Set_APB1_PrescalerEt+0x9a>
 800066e:	a201      	add	r2, pc, #4	; (adr r2, 8000674 <_ZN12ClockControl18Set_APB1_PrescalerEt+0x18>)
 8000670:	f852 f023 	ldr.w	pc, [r2, r3, lsl #2]
 8000674:	080006b5 	.word	0x080006b5
 8000678:	080006bf 	.word	0x080006bf
 800067c:	080006f7 	.word	0x080006f7
 8000680:	080006cd 	.word	0x080006cd
 8000684:	080006f7 	.word	0x080006f7
 8000688:	080006f7 	.word	0x080006f7
 800068c:	080006f7 	.word	0x080006f7
 8000690:	080006db 	.word	0x080006db
 8000694:	080006f7 	.word	0x080006f7
 8000698:	080006f7 	.word	0x080006f7
 800069c:	080006f7 	.word	0x080006f7
 80006a0:	080006f7 	.word	0x080006f7
 80006a4:	080006f7 	.word	0x080006f7
 80006a8:	080006f7 	.word	0x080006f7
 80006ac:	080006f7 	.word	0x080006f7
 80006b0:	080006e9 	.word	0x080006e9
	{
	case 1:
		RCC->CFGR |= RCC_CFGR_PPRE1_DIV1;
 80006b4:	4b15      	ldr	r3, [pc, #84]	; (800070c <_ZN12ClockControl18Set_APB1_PrescalerEt+0xb0>)
 80006b6:	4a15      	ldr	r2, [pc, #84]	; (800070c <_ZN12ClockControl18Set_APB1_PrescalerEt+0xb0>)
 80006b8:	685b      	ldr	r3, [r3, #4]
 80006ba:	6053      	str	r3, [r2, #4]
		break;
 80006bc:	e020      	b.n	8000700 <_ZN12ClockControl18Set_APB1_PrescalerEt+0xa4>
	case 2:
		RCC->CFGR |= RCC_CFGR_PPRE1_DIV2;
 80006be:	4b13      	ldr	r3, [pc, #76]	; (800070c <_ZN12ClockControl18Set_APB1_PrescalerEt+0xb0>)
 80006c0:	685b      	ldr	r3, [r3, #4]
 80006c2:	4a12      	ldr	r2, [pc, #72]	; (800070c <_ZN12ClockControl18Set_APB1_PrescalerEt+0xb0>)
 80006c4:	f443 6380 	orr.w	r3, r3, #1024	; 0x400
 80006c8:	6053      	str	r3, [r2, #4]
		break;
 80006ca:	e019      	b.n	8000700 <_ZN12ClockControl18Set_APB1_PrescalerEt+0xa4>
	case 4:
		RCC->CFGR |= RCC_CFGR_PPRE1_DIV4;
 80006cc:	4b0f      	ldr	r3, [pc, #60]	; (800070c <_ZN12ClockControl18Set_APB1_PrescalerEt+0xb0>)
 80006ce:	685b      	ldr	r3, [r3, #4]
 80006d0:	4a0e      	ldr	r2, [pc, #56]	; (800070c <_ZN12ClockControl18Set_APB1_PrescalerEt+0xb0>)
 80006d2:	f443 63a0 	orr.w	r3, r3, #1280	; 0x500
 80006d6:	6053      	str	r3, [r2, #4]
		break;
 80006d8:	e012      	b.n	8000700 <_ZN12ClockControl18Set_APB1_PrescalerEt+0xa4>
	case 8:
		RCC->CFGR |= RCC_CFGR_PPRE1_DIV8;
 80006da:	4b0c      	ldr	r3, [pc, #48]	; (800070c <_ZN12ClockControl18Set_APB1_PrescalerEt+0xb0>)
 80006dc:	685b      	ldr	r3, [r3, #4]
 80006de:	4a0b      	ldr	r2, [pc, #44]	; (800070c <_ZN12ClockControl18Set_APB1_PrescalerEt+0xb0>)
 80006e0:	f443 63c0 	orr.w	r3, r3, #1536	; 0x600
 80006e4:	6053      	str	r3, [r2, #4]
		break;
 80006e6:	e00b      	b.n	8000700 <_ZN12ClockControl18Set_APB1_PrescalerEt+0xa4>
	case 16:
		RCC->CFGR |= RCC_CFGR_PPRE1_DIV16;
 80006e8:	4b08      	ldr	r3, [pc, #32]	; (800070c <_ZN12ClockControl18Set_APB1_PrescalerEt+0xb0>)
 80006ea:	685b      	ldr	r3, [r3, #4]
 80006ec:	4a07      	ldr	r2, [pc, #28]	; (800070c <_ZN12ClockControl18Set_APB1_PrescalerEt+0xb0>)
 80006ee:	f443 63e0 	orr.w	r3, r3, #1792	; 0x700
 80006f2:	6053      	str	r3, [r2, #4]
		break;
 80006f4:	e004      	b.n	8000700 <_ZN12ClockControl18Set_APB1_PrescalerEt+0xa4>
	default:
		RCC->CFGR |= RCC_CFGR_PPRE1_DIV1;
 80006f6:	4b05      	ldr	r3, [pc, #20]	; (800070c <_ZN12ClockControl18Set_APB1_PrescalerEt+0xb0>)
 80006f8:	4a04      	ldr	r2, [pc, #16]	; (800070c <_ZN12ClockControl18Set_APB1_PrescalerEt+0xb0>)
 80006fa:	685b      	ldr	r3, [r3, #4]
 80006fc:	6053      	str	r3, [r2, #4]
	}
}
 80006fe:	bf00      	nop
 8000700:	bf00      	nop
 8000702:	370c      	adds	r7, #12
 8000704:	46bd      	mov	sp, r7
 8000706:	bc80      	pop	{r7}
 8000708:	4770      	bx	lr
 800070a:	bf00      	nop
 800070c:	40021000 	.word	0x40021000

08000710 <_ZN12ClockControl18Set_APB2_PrescalerEt>:
void ClockControl::Set_APB2_Prescaler(unsigned short APB2_Prescaler_Value)
{
 8000710:	b480      	push	{r7}
 8000712:	b083      	sub	sp, #12
 8000714:	af00      	add	r7, sp, #0
 8000716:	4603      	mov	r3, r0
 8000718:	80fb      	strh	r3, [r7, #6]
	switch (APB2_Prescaler_Value)
 800071a:	88fb      	ldrh	r3, [r7, #6]
 800071c:	3b01      	subs	r3, #1
 800071e:	2b0f      	cmp	r3, #15
 8000720:	d843      	bhi.n	80007aa <_ZN12ClockControl18Set_APB2_PrescalerEt+0x9a>
 8000722:	a201      	add	r2, pc, #4	; (adr r2, 8000728 <_ZN12ClockControl18Set_APB2_PrescalerEt+0x18>)
 8000724:	f852 f023 	ldr.w	pc, [r2, r3, lsl #2]
 8000728:	08000769 	.word	0x08000769
 800072c:	08000773 	.word	0x08000773
 8000730:	080007ab 	.word	0x080007ab
 8000734:	08000781 	.word	0x08000781
 8000738:	080007ab 	.word	0x080007ab
 800073c:	080007ab 	.word	0x080007ab
 8000740:	080007ab 	.word	0x080007ab
 8000744:	0800078f 	.word	0x0800078f
 8000748:	080007ab 	.word	0x080007ab
 800074c:	080007ab 	.word	0x080007ab
 8000750:	080007ab 	.word	0x080007ab
 8000754:	080007ab 	.word	0x080007ab
 8000758:	080007ab 	.word	0x080007ab
 800075c:	080007ab 	.word	0x080007ab
 8000760:	080007ab 	.word	0x080007ab
 8000764:	0800079d 	.word	0x0800079d
	{
	case 1:
		RCC->CFGR |= RCC_CFGR_PPRE2_DIV1;
 8000768:	4b15      	ldr	r3, [pc, #84]	; (80007c0 <_ZN12ClockControl18Set_APB2_PrescalerEt+0xb0>)
 800076a:	4a15      	ldr	r2, [pc, #84]	; (80007c0 <_ZN12ClockControl18Set_APB2_PrescalerEt+0xb0>)
 800076c:	685b      	ldr	r3, [r3, #4]
 800076e:	6053      	str	r3, [r2, #4]
		break;
 8000770:	e020      	b.n	80007b4 <_ZN12ClockControl18Set_APB2_PrescalerEt+0xa4>
	case 2:
		RCC->CFGR |= RCC_CFGR_PPRE2_DIV2;
 8000772:	4b13      	ldr	r3, [pc, #76]	; (80007c0 <_ZN12ClockControl18Set_APB2_PrescalerEt+0xb0>)
 8000774:	685b      	ldr	r3, [r3, #4]
 8000776:	4a12      	ldr	r2, [pc, #72]	; (80007c0 <_ZN12ClockControl18Set_APB2_PrescalerEt+0xb0>)
 8000778:	f443 5300 	orr.w	r3, r3, #8192	; 0x2000
 800077c:	6053      	str	r3, [r2, #4]
		break;
 800077e:	e019      	b.n	80007b4 <_ZN12ClockControl18Set_APB2_PrescalerEt+0xa4>
	case 4:
		RCC->CFGR |= RCC_CFGR_PPRE2_DIV4;
 8000780:	4b0f      	ldr	r3, [pc, #60]	; (80007c0 <_ZN12ClockControl18Set_APB2_PrescalerEt+0xb0>)
 8000782:	685b      	ldr	r3, [r3, #4]
 8000784:	4a0e      	ldr	r2, [pc, #56]	; (80007c0 <_ZN12ClockControl18Set_APB2_PrescalerEt+0xb0>)
 8000786:	f443 5320 	orr.w	r3, r3, #10240	; 0x2800
 800078a:	6053      	str	r3, [r2, #4]
		break;
 800078c:	e012      	b.n	80007b4 <_ZN12ClockControl18Set_APB2_PrescalerEt+0xa4>
	case 8:
		RCC->CFGR |= RCC_CFGR_PPRE2_DIV8;
 800078e:	4b0c      	ldr	r3, [pc, #48]	; (80007c0 <_ZN12ClockControl18Set_APB2_PrescalerEt+0xb0>)
 8000790:	685b      	ldr	r3, [r3, #4]
 8000792:	4a0b      	ldr	r2, [pc, #44]	; (80007c0 <_ZN12ClockControl18Set_APB2_PrescalerEt+0xb0>)
 8000794:	f443 5340 	orr.w	r3, r3, #12288	; 0x3000
 8000798:	6053      	str	r3, [r2, #4]
		break;
 800079a:	e00b      	b.n	80007b4 <_ZN12ClockControl18Set_APB2_PrescalerEt+0xa4>
	case 16:
		RCC->CFGR |= RCC_CFGR_PPRE2_DIV16;
 800079c:	4b08      	ldr	r3, [pc, #32]	; (80007c0 <_ZN12ClockControl18Set_APB2_PrescalerEt+0xb0>)
 800079e:	685b      	ldr	r3, [r3, #4]
 80007a0:	4a07      	ldr	r2, [pc, #28]	; (80007c0 <_ZN12ClockControl18Set_APB2_PrescalerEt+0xb0>)
 80007a2:	f443 5360 	orr.w	r3, r3, #14336	; 0x3800
 80007a6:	6053      	str	r3, [r2, #4]
		break;
 80007a8:	e004      	b.n	80007b4 <_ZN12ClockControl18Set_APB2_PrescalerEt+0xa4>
	default:
		RCC->CFGR |= RCC_CFGR_PPRE2_DIV1;
 80007aa:	4b05      	ldr	r3, [pc, #20]	; (80007c0 <_ZN12ClockControl18Set_APB2_PrescalerEt+0xb0>)
 80007ac:	4a04      	ldr	r2, [pc, #16]	; (80007c0 <_ZN12ClockControl18Set_APB2_PrescalerEt+0xb0>)
 80007ae:	685b      	ldr	r3, [r3, #4]
 80007b0:	6053      	str	r3, [r2, #4]
	}
}
 80007b2:	bf00      	nop
 80007b4:	bf00      	nop
 80007b6:	370c      	adds	r7, #12
 80007b8:	46bd      	mov	sp, r7
 80007ba:	bc80      	pop	{r7}
 80007bc:	4770      	bx	lr
 80007be:	bf00      	nop
 80007c0:	40021000 	.word	0x40021000

080007c4 <_ZN12ClockControl17Set_ADC_PrescalerEt>:
void ClockControl::Set_ADC_Prescaler(unsigned short ADC_Prescaler_Value)
{
 80007c4:	b480      	push	{r7}
 80007c6:	b083      	sub	sp, #12
 80007c8:	af00      	add	r7, sp, #0
 80007ca:	4603      	mov	r3, r0
 80007cc:	80fb      	strh	r3, [r7, #6]
	switch (ADC_Prescaler_Value)
 80007ce:	88fb      	ldrh	r3, [r7, #6]
 80007d0:	3b02      	subs	r3, #2
 80007d2:	2b06      	cmp	r3, #6
 80007d4:	d82a      	bhi.n	800082c <_ZN12ClockControl17Set_ADC_PrescalerEt+0x68>
 80007d6:	a201      	add	r2, pc, #4	; (adr r2, 80007dc <_ZN12ClockControl17Set_ADC_PrescalerEt+0x18>)
 80007d8:	f852 f023 	ldr.w	pc, [r2, r3, lsl #2]
 80007dc:	080007f9 	.word	0x080007f9
 80007e0:	0800082d 	.word	0x0800082d
 80007e4:	08000803 	.word	0x08000803
 80007e8:	0800082d 	.word	0x0800082d
 80007ec:	08000811 	.word	0x08000811
 80007f0:	0800082d 	.word	0x0800082d
 80007f4:	0800081f 	.word	0x0800081f
	{
	case 2:
		RCC->CFGR |= RCC_CFGR_ADCPRE_DIV2;
 80007f8:	4b11      	ldr	r3, [pc, #68]	; (8000840 <_ZN12ClockControl17Set_ADC_PrescalerEt+0x7c>)
 80007fa:	4a11      	ldr	r2, [pc, #68]	; (8000840 <_ZN12ClockControl17Set_ADC_PrescalerEt+0x7c>)
 80007fc:	685b      	ldr	r3, [r3, #4]
 80007fe:	6053      	str	r3, [r2, #4]
		break;
 8000800:	e019      	b.n	8000836 <_ZN12ClockControl17Set_ADC_PrescalerEt+0x72>
	case 4:
		RCC->CFGR |= RCC_CFGR_ADCPRE_DIV4;
 8000802:	4b0f      	ldr	r3, [pc, #60]	; (8000840 <_ZN12ClockControl17Set_ADC_PrescalerEt+0x7c>)
 8000804:	685b      	ldr	r3, [r3, #4]
 8000806:	4a0e      	ldr	r2, [pc, #56]	; (8000840 <_ZN12ClockControl17Set_ADC_PrescalerEt+0x7c>)
 8000808:	f443 4380 	orr.w	r3, r3, #16384	; 0x4000
 800080c:	6053      	str	r3, [r2, #4]
		break;
 800080e:	e012      	b.n	8000836 <_ZN12ClockControl17Set_ADC_PrescalerEt+0x72>
	case 6:
		RCC->CFGR |= RCC_CFGR_ADCPRE_DIV6;
 8000810:	4b0b      	ldr	r3, [pc, #44]	; (8000840 <_ZN12ClockControl17Set_ADC_PrescalerEt+0x7c>)
 8000812:	685b      	ldr	r3, [r3, #4]
 8000814:	4a0a      	ldr	r2, [pc, #40]	; (8000840 <_ZN12ClockControl17Set_ADC_PrescalerEt+0x7c>)
 8000816:	f443 4300 	orr.w	r3, r3, #32768	; 0x8000
 800081a:	6053      	str	r3, [r2, #4]
		break;
 800081c:	e00b      	b.n	8000836 <_ZN12ClockControl17Set_ADC_PrescalerEt+0x72>
	case 8:
		RCC->CFGR |= RCC_CFGR_ADCPRE_DIV8;
 800081e:	4b08      	ldr	r3, [pc, #32]	; (8000840 <_ZN12ClockControl17Set_ADC_PrescalerEt+0x7c>)
 8000820:	685b      	ldr	r3, [r3, #4]
 8000822:	4a07      	ldr	r2, [pc, #28]	; (8000840 <_ZN12ClockControl17Set_ADC_PrescalerEt+0x7c>)
 8000824:	f443 4340 	orr.w	r3, r3, #49152	; 0xc000
 8000828:	6053      	str	r3, [r2, #4]
		break;
 800082a:	e004      	b.n	8000836 <_ZN12ClockControl17Set_ADC_PrescalerEt+0x72>
	default:
		RCC->CFGR |= RCC_CFGR_ADCPRE_DIV2;
 800082c:	4b04      	ldr	r3, [pc, #16]	; (8000840 <_ZN12ClockControl17Set_ADC_PrescalerEt+0x7c>)
 800082e:	4a04      	ldr	r2, [pc, #16]	; (8000840 <_ZN12ClockControl17Set_ADC_PrescalerEt+0x7c>)
 8000830:	685b      	ldr	r3, [r3, #4]
 8000832:	6053      	str	r3, [r2, #4]
	}
}
 8000834:	bf00      	nop
 8000836:	bf00      	nop
 8000838:	370c      	adds	r7, #12
 800083a:	46bd      	mov	sp, r7
 800083c:	bc80      	pop	{r7}
 800083e:	4770      	bx	lr
 8000840:	40021000 	.word	0x40021000

08000844 <_ZN12ClockControl3HSE9Start_HSEEv>:
{
	RCC->CFGR &= ~RCC_CFGR_USBPRE;
}

bool ClockControl::HSE::Start_HSE()
{
 8000844:	b480      	push	{r7}
 8000846:	b083      	sub	sp, #12
 8000848:	af00      	add	r7, sp, #0
	RCC->CR |= RCC_CR_HSEON;
 800084a:	4b12      	ldr	r3, [pc, #72]	; (8000894 <_ZN12ClockControl3HSE9Start_HSEEv+0x50>)
 800084c:	681b      	ldr	r3, [r3, #0]
 800084e:	4a11      	ldr	r2, [pc, #68]	; (8000894 <_ZN12ClockControl3HSE9Start_HSEEv+0x50>)
 8000850:	f443 3380 	orr.w	r3, r3, #65536	; 0x10000
 8000854:	6013      	str	r3, [r2, #0]

	for (int StartUpCounter = 0;; StartUpCounter++)
 8000856:	2300      	movs	r3, #0
 8000858:	607b      	str	r3, [r7, #4]
	{
		if (StartUpCounter > 0x1000)
 800085a:	687b      	ldr	r3, [r7, #4]
 800085c:	f5b3 5f80 	cmp.w	r3, #4096	; 0x1000
 8000860:	dd01      	ble.n	8000866 <_ZN12ClockControl3HSE9Start_HSEEv+0x22>
			return 0;
 8000862:	2300      	movs	r3, #0
 8000864:	e010      	b.n	8000888 <_ZN12ClockControl3HSE9Start_HSEEv+0x44>
		else if (RCC->CR & RCC_CR_HSERDY)
 8000866:	4b0b      	ldr	r3, [pc, #44]	; (8000894 <_ZN12ClockControl3HSE9Start_HSEEv+0x50>)
 8000868:	681b      	ldr	r3, [r3, #0]
 800086a:	f403 3300 	and.w	r3, r3, #131072	; 0x20000
 800086e:	2b00      	cmp	r3, #0
 8000870:	bf14      	ite	ne
 8000872:	2301      	movne	r3, #1
 8000874:	2300      	moveq	r3, #0
 8000876:	b2db      	uxtb	r3, r3
 8000878:	2b00      	cmp	r3, #0
 800087a:	d001      	beq.n	8000880 <_ZN12ClockControl3HSE9Start_HSEEv+0x3c>
			return 1;
 800087c:	2301      	movs	r3, #1
 800087e:	e003      	b.n	8000888 <_ZN12ClockControl3HSE9Start_HSEEv+0x44>
	for (int StartUpCounter = 0;; StartUpCounter++)
 8000880:	687b      	ldr	r3, [r7, #4]
 8000882:	3301      	adds	r3, #1
 8000884:	607b      	str	r3, [r7, #4]
		if (StartUpCounter > 0x1000)
 8000886:	e7e8      	b.n	800085a <_ZN12ClockControl3HSE9Start_HSEEv+0x16>
	}
}
 8000888:	4618      	mov	r0, r3
 800088a:	370c      	adds	r7, #12
 800088c:	46bd      	mov	sp, r7
 800088e:	bc80      	pop	{r7}
 8000890:	4770      	bx	lr
 8000892:	bf00      	nop
 8000894:	40021000 	.word	0x40021000

08000898 <_ZN12ClockControl3HSE3PLL14Set_PLLSRC_HSEEv>:
void ClockControl::HSE::Stop_HSE()
{
	RCC->CR &= ~RCC_CR_HSEON;
}
void ClockControl::HSE::PLL::Set_PLLSRC_HSE()
{
 8000898:	b480      	push	{r7}
 800089a:	af00      	add	r7, sp, #0
	RCC->CFGR |= RCC_CFGR_PLLSRC;
 800089c:	4b04      	ldr	r3, [pc, #16]	; (80008b0 <_ZN12ClockControl3HSE3PLL14Set_PLLSRC_HSEEv+0x18>)
 800089e:	685b      	ldr	r3, [r3, #4]
 80008a0:	4a03      	ldr	r2, [pc, #12]	; (80008b0 <_ZN12ClockControl3HSE3PLL14Set_PLLSRC_HSEEv+0x18>)
 80008a2:	f443 3380 	orr.w	r3, r3, #65536	; 0x10000
 80008a6:	6053      	str	r3, [r2, #4]
}
 80008a8:	bf00      	nop
 80008aa:	46bd      	mov	sp, r7
 80008ac:	bc80      	pop	{r7}
 80008ae:	4770      	bx	lr
 80008b0:	40021000 	.word	0x40021000

080008b4 <_ZN12ClockControl3HSE3PLL14Clean_PLLXTPREEv>:
void ClockControl::HSE::PLL::Set_PLLXTPRE()
{
	RCC->CFGR |= (1 << RCC_CFGR_PLLXTPRE_Pos);
}
void ClockControl::HSE::PLL::Clean_PLLXTPRE()
{
 80008b4:	b480      	push	{r7}
 80008b6:	af00      	add	r7, sp, #0
	RCC->CFGR &= ~(0 << RCC_CFGR_PLLXTPRE_Pos);
 80008b8:	4b03      	ldr	r3, [pc, #12]	; (80008c8 <_ZN12ClockControl3HSE3PLL14Clean_PLLXTPREEv+0x14>)
 80008ba:	4a03      	ldr	r2, [pc, #12]	; (80008c8 <_ZN12ClockControl3HSE3PLL14Clean_PLLXTPREEv+0x14>)
 80008bc:	685b      	ldr	r3, [r3, #4]
 80008be:	6053      	str	r3, [r2, #4]
}
 80008c0:	bf00      	nop
 80008c2:	46bd      	mov	sp, r7
 80008c4:	bc80      	pop	{r7}
 80008c6:	4770      	bx	lr
 80008c8:	40021000 	.word	0x40021000

080008cc <_ZN12ClockControl3HSE3PLL11Set_PLL_MULEt>:
void ClockControl::HSE::PLL::Set_PLL_MUL(unsigned short PLL_MUL_Value)
{
 80008cc:	b480      	push	{r7}
 80008ce:	b083      	sub	sp, #12
 80008d0:	af00      	add	r7, sp, #0
 80008d2:	4603      	mov	r3, r0
 80008d4:	80fb      	strh	r3, [r7, #6]
	if (PLL_MUL_Value < 2)
 80008d6:	88fb      	ldrh	r3, [r7, #6]
 80008d8:	2b01      	cmp	r3, #1
 80008da:	d804      	bhi.n	80008e6 <_ZN12ClockControl3HSE3PLL11Set_PLL_MULEt+0x1a>
	{
		RCC->CFGR |= RCC_CFGR_PLLMULL2;
 80008dc:	4b0e      	ldr	r3, [pc, #56]	; (8000918 <_ZN12ClockControl3HSE3PLL11Set_PLL_MULEt+0x4c>)
 80008de:	4a0e      	ldr	r2, [pc, #56]	; (8000918 <_ZN12ClockControl3HSE3PLL11Set_PLL_MULEt+0x4c>)
 80008e0:	685b      	ldr	r3, [r3, #4]
 80008e2:	6053      	str	r3, [r2, #4]
		else
		{
			RCC->CFGR |= ((PLL_MUL_Value - 2) << RCC_CFGR_PLLMULL_Pos);
		}
	}
}
 80008e4:	e012      	b.n	800090c <_ZN12ClockControl3HSE3PLL11Set_PLL_MULEt+0x40>
		if (PLL_MUL_Value > 0b1111)
 80008e6:	88fb      	ldrh	r3, [r7, #6]
 80008e8:	2b0f      	cmp	r3, #15
 80008ea:	d906      	bls.n	80008fa <_ZN12ClockControl3HSE3PLL11Set_PLL_MULEt+0x2e>
			RCC->CFGR |= RCC_CFGR_PLLMULL16;
 80008ec:	4b0a      	ldr	r3, [pc, #40]	; (8000918 <_ZN12ClockControl3HSE3PLL11Set_PLL_MULEt+0x4c>)
 80008ee:	685b      	ldr	r3, [r3, #4]
 80008f0:	4a09      	ldr	r2, [pc, #36]	; (8000918 <_ZN12ClockControl3HSE3PLL11Set_PLL_MULEt+0x4c>)
 80008f2:	f443 1360 	orr.w	r3, r3, #3670016	; 0x380000
 80008f6:	6053      	str	r3, [r2, #4]
}
 80008f8:	e008      	b.n	800090c <_ZN12ClockControl3HSE3PLL11Set_PLL_MULEt+0x40>
			RCC->CFGR |= ((PLL_MUL_Value - 2) << RCC_CFGR_PLLMULL_Pos);
 80008fa:	4b07      	ldr	r3, [pc, #28]	; (8000918 <_ZN12ClockControl3HSE3PLL11Set_PLL_MULEt+0x4c>)
 80008fc:	685b      	ldr	r3, [r3, #4]
 80008fe:	88fa      	ldrh	r2, [r7, #6]
 8000900:	3a02      	subs	r2, #2
 8000902:	0492      	lsls	r2, r2, #18
 8000904:	4611      	mov	r1, r2
 8000906:	4a04      	ldr	r2, [pc, #16]	; (8000918 <_ZN12ClockControl3HSE3PLL11Set_PLL_MULEt+0x4c>)
 8000908:	430b      	orrs	r3, r1
 800090a:	6053      	str	r3, [r2, #4]
}
 800090c:	bf00      	nop
 800090e:	370c      	adds	r7, #12
 8000910:	46bd      	mov	sp, r7
 8000912:	bc80      	pop	{r7}
 8000914:	4770      	bx	lr
 8000916:	bf00      	nop
 8000918:	40021000 	.word	0x40021000

0800091c <_ZN12ClockControl3HSE3PLL9Start_PLLEv>:
bool ClockControl::HSE::PLL::Start_PLL()
{
 800091c:	b480      	push	{r7}
 800091e:	b083      	sub	sp, #12
 8000920:	af00      	add	r7, sp, #0
	RCC->CR |= RCC_CR_PLLON;
 8000922:	4b12      	ldr	r3, [pc, #72]	; (800096c <_ZN12ClockControl3HSE3PLL9Start_PLLEv+0x50>)
 8000924:	681b      	ldr	r3, [r3, #0]
 8000926:	4a11      	ldr	r2, [pc, #68]	; (800096c <_ZN12ClockControl3HSE3PLL9Start_PLLEv+0x50>)
 8000928:	f043 7380 	orr.w	r3, r3, #16777216	; 0x1000000
 800092c:	6013      	str	r3, [r2, #0]

	for (int StartUpCounter = 0;; StartUpCounter++)
 800092e:	2300      	movs	r3, #0
 8000930:	607b      	str	r3, [r7, #4]
	{
		if (StartUpCounter > 0x1000)
 8000932:	687b      	ldr	r3, [r7, #4]
 8000934:	f5b3 5f80 	cmp.w	r3, #4096	; 0x1000
 8000938:	dd01      	ble.n	800093e <_ZN12ClockControl3HSE3PLL9Start_PLLEv+0x22>
			return 0;
 800093a:	2300      	movs	r3, #0
 800093c:	e010      	b.n	8000960 <_ZN12ClockControl3HSE3PLL9Start_PLLEv+0x44>
		else if (RCC->CR & RCC_CR_PLLRDY)
 800093e:	4b0b      	ldr	r3, [pc, #44]	; (800096c <_ZN12ClockControl3HSE3PLL9Start_PLLEv+0x50>)
 8000940:	681b      	ldr	r3, [r3, #0]
 8000942:	f003 7300 	and.w	r3, r3, #33554432	; 0x2000000
 8000946:	2b00      	cmp	r3, #0
 8000948:	bf14      	ite	ne
 800094a:	2301      	movne	r3, #1
 800094c:	2300      	moveq	r3, #0
 800094e:	b2db      	uxtb	r3, r3
 8000950:	2b00      	cmp	r3, #0
 8000952:	d001      	beq.n	8000958 <_ZN12ClockControl3HSE3PLL9Start_PLLEv+0x3c>
			return 1;
 8000954:	2301      	movs	r3, #1
 8000956:	e003      	b.n	8000960 <_ZN12ClockControl3HSE3PLL9Start_PLLEv+0x44>
	for (int StartUpCounter = 0;; StartUpCounter++)
 8000958:	687b      	ldr	r3, [r7, #4]
 800095a:	3301      	adds	r3, #1
 800095c:	607b      	str	r3, [r7, #4]
		if (StartUpCounter > 0x1000)
 800095e:	e7e8      	b.n	8000932 <_ZN12ClockControl3HSE3PLL9Start_PLLEv+0x16>
	}
}
 8000960:	4618      	mov	r0, r3
 8000962:	370c      	adds	r7, #12
 8000964:	46bd      	mov	sp, r7
 8000966:	bc80      	pop	{r7}
 8000968:	4770      	bx	lr
 800096a:	bf00      	nop
 800096c:	40021000 	.word	0x40021000

08000970 <_ZN12ClockControl3HSE3PLL10Set_SW_PLLEv>:
void ClockControl::HSE::PLL::Set_SW_PLL()
{
 8000970:	b480      	push	{r7}
 8000972:	af00      	add	r7, sp, #0
	RCC->CFGR |= RCC_CFGR_SW_PLL;
 8000974:	4b04      	ldr	r3, [pc, #16]	; (8000988 <_ZN12ClockControl3HSE3PLL10Set_SW_PLLEv+0x18>)
 8000976:	685b      	ldr	r3, [r3, #4]
 8000978:	4a03      	ldr	r2, [pc, #12]	; (8000988 <_ZN12ClockControl3HSE3PLL10Set_SW_PLLEv+0x18>)
 800097a:	f043 0302 	orr.w	r3, r3, #2
 800097e:	6053      	str	r3, [r2, #4]
}
 8000980:	bf00      	nop
 8000982:	46bd      	mov	sp, r7
 8000984:	bc80      	pop	{r7}
 8000986:	4770      	bx	lr
 8000988:	40021000 	.word	0x40021000

0800098c <__NVIC_EnableIRQ>:
{
 800098c:	b480      	push	{r7}
 800098e:	b083      	sub	sp, #12
 8000990:	af00      	add	r7, sp, #0
 8000992:	4603      	mov	r3, r0
 8000994:	71fb      	strb	r3, [r7, #7]
  if ((int32_t)(IRQn) >= 0)
 8000996:	f997 3007 	ldrsb.w	r3, [r7, #7]
 800099a:	2b00      	cmp	r3, #0
 800099c:	db0b      	blt.n	80009b6 <__NVIC_EnableIRQ+0x2a>
    NVIC->ISER[(((uint32_t)IRQn) >> 5UL)] = (uint32_t)(1UL << (((uint32_t)IRQn) & 0x1FUL));
 800099e:	79fb      	ldrb	r3, [r7, #7]
 80009a0:	f003 021f 	and.w	r2, r3, #31
 80009a4:	4906      	ldr	r1, [pc, #24]	; (80009c0 <__NVIC_EnableIRQ+0x34>)
 80009a6:	f997 3007 	ldrsb.w	r3, [r7, #7]
 80009aa:	095b      	lsrs	r3, r3, #5
 80009ac:	2001      	movs	r0, #1
 80009ae:	fa00 f202 	lsl.w	r2, r0, r2
 80009b2:	f841 2023 	str.w	r2, [r1, r3, lsl #2]
}
 80009b6:	bf00      	nop
 80009b8:	370c      	adds	r7, #12
 80009ba:	46bd      	mov	sp, r7
 80009bc:	bc80      	pop	{r7}
 80009be:	4770      	bx	lr
 80009c0:	e000e100 	.word	0xe000e100

080009c4 <_Z14Uart2_StrWritePc>:
short Uart2_Counter = 0;
short Uart2_Len = 0;
char Uart2_BufSend[100] = {0};

void Uart2_StrWrite(char Buf[100])
{
 80009c4:	b580      	push	{r7, lr}
 80009c6:	b082      	sub	sp, #8
 80009c8:	af00      	add	r7, sp, #0
 80009ca:	6078      	str	r0, [r7, #4]
  if (Uart2_Cond)
 80009cc:	4b15      	ldr	r3, [pc, #84]	; (8000a24 <_Z14Uart2_StrWritePc+0x60>)
 80009ce:	f9b3 3000 	ldrsh.w	r3, [r3]
 80009d2:	2b00      	cmp	r3, #0
 80009d4:	d021      	beq.n	8000a1a <_Z14Uart2_StrWritePc+0x56>
  {
    Uart2_Cond = 0;
 80009d6:	4b13      	ldr	r3, [pc, #76]	; (8000a24 <_Z14Uart2_StrWritePc+0x60>)
 80009d8:	2200      	movs	r2, #0
 80009da:	801a      	strh	r2, [r3, #0]
    Uart2_Counter = 0;
 80009dc:	4b12      	ldr	r3, [pc, #72]	; (8000a28 <_Z14Uart2_StrWritePc+0x64>)
 80009de:	2200      	movs	r2, #0
 80009e0:	801a      	strh	r2, [r3, #0]
    Uart2_Len = 0;
 80009e2:	4b12      	ldr	r3, [pc, #72]	; (8000a2c <_Z14Uart2_StrWritePc+0x68>)
 80009e4:	2200      	movs	r2, #0
 80009e6:	801a      	strh	r2, [r3, #0]

    strcpy(Uart2_BufSend, Buf);
 80009e8:	6879      	ldr	r1, [r7, #4]
 80009ea:	4811      	ldr	r0, [pc, #68]	; (8000a30 <_Z14Uart2_StrWritePc+0x6c>)
 80009ec:	f000 f93c 	bl	8000c68 <strcpy>
    Uart2_Len = strlen(Uart2_BufSend);
 80009f0:	480f      	ldr	r0, [pc, #60]	; (8000a30 <_Z14Uart2_StrWritePc+0x6c>)
 80009f2:	f7ff fbbd 	bl	8000170 <strlen>
 80009f6:	4603      	mov	r3, r0
 80009f8:	b21a      	sxth	r2, r3
 80009fa:	4b0c      	ldr	r3, [pc, #48]	; (8000a2c <_Z14Uart2_StrWritePc+0x68>)
 80009fc:	801a      	strh	r2, [r3, #0]

    USART2->DR = Uart2_BufSend[Uart2_Counter];
 80009fe:	4b0a      	ldr	r3, [pc, #40]	; (8000a28 <_Z14Uart2_StrWritePc+0x64>)
 8000a00:	f9b3 3000 	ldrsh.w	r3, [r3]
 8000a04:	461a      	mov	r2, r3
 8000a06:	4b0a      	ldr	r3, [pc, #40]	; (8000a30 <_Z14Uart2_StrWritePc+0x6c>)
 8000a08:	5c9a      	ldrb	r2, [r3, r2]
 8000a0a:	4b0a      	ldr	r3, [pc, #40]	; (8000a34 <_Z14Uart2_StrWritePc+0x70>)
 8000a0c:	605a      	str	r2, [r3, #4]
    USART2->CR1 |= USART_CR1_TXEIE;
 8000a0e:	4b09      	ldr	r3, [pc, #36]	; (8000a34 <_Z14Uart2_StrWritePc+0x70>)
 8000a10:	68db      	ldr	r3, [r3, #12]
 8000a12:	4a08      	ldr	r2, [pc, #32]	; (8000a34 <_Z14Uart2_StrWritePc+0x70>)
 8000a14:	f043 0380 	orr.w	r3, r3, #128	; 0x80
 8000a18:	60d3      	str	r3, [r2, #12]
  }
}
 8000a1a:	bf00      	nop
 8000a1c:	3708      	adds	r7, #8
 8000a1e:	46bd      	mov	sp, r7
 8000a20:	bd80      	pop	{r7, pc}
 8000a22:	bf00      	nop
 8000a24:	20000000 	.word	0x20000000
 8000a28:	2000008c 	.word	0x2000008c
 8000a2c:	2000008e 	.word	0x2000008e
 8000a30:	20000090 	.word	0x20000090
 8000a34:	40004400 	.word	0x40004400

08000a38 <_Z9Uart2_IniP13USART_TypeDefli>:

void Uart2_Ini(USART_TypeDef *UartNumb, long int UartBusCLK, int BaudRate)
{
 8000a38:	b580      	push	{r7, lr}
 8000a3a:	b084      	sub	sp, #16
 8000a3c:	af00      	add	r7, sp, #0
 8000a3e:	60f8      	str	r0, [r7, #12]
 8000a40:	60b9      	str	r1, [r7, #8]
 8000a42:	607a      	str	r2, [r7, #4]
  /*  включаем тактирование UART  */
  RCC->APB1ENR |= RCC_APB1ENR_USART2EN;
 8000a44:	4b23      	ldr	r3, [pc, #140]	; (8000ad4 <_Z9Uart2_IniP13USART_TypeDefli+0x9c>)
 8000a46:	69db      	ldr	r3, [r3, #28]
 8000a48:	4a22      	ldr	r2, [pc, #136]	; (8000ad4 <_Z9Uart2_IniP13USART_TypeDefli+0x9c>)
 8000a4a:	f443 3300 	orr.w	r3, r3, #131072	; 0x20000
 8000a4e:	61d3      	str	r3, [r2, #28]

  /*  UART2 использует выводы: PA2 (TX) и PA3 (RX).  */
  RCC->APB2ENR |= RCC_APB2ENR_IOPAEN; // тактирование порта GPIOA
 8000a50:	4b20      	ldr	r3, [pc, #128]	; (8000ad4 <_Z9Uart2_IniP13USART_TypeDefli+0x9c>)
 8000a52:	699b      	ldr	r3, [r3, #24]
 8000a54:	4a1f      	ldr	r2, [pc, #124]	; (8000ad4 <_Z9Uart2_IniP13USART_TypeDefli+0x9c>)
 8000a56:	f043 0304 	orr.w	r3, r3, #4
 8000a5a:	6193      	str	r3, [r2, #24]

  /*  PA2_Tx  */
  GPIOA->CRL &= ~(GPIO_CRL_CNF2);
 8000a5c:	4b1e      	ldr	r3, [pc, #120]	; (8000ad8 <_Z9Uart2_IniP13USART_TypeDefli+0xa0>)
 8000a5e:	681b      	ldr	r3, [r3, #0]
 8000a60:	4a1d      	ldr	r2, [pc, #116]	; (8000ad8 <_Z9Uart2_IniP13USART_TypeDefli+0xa0>)
 8000a62:	f423 6340 	bic.w	r3, r3, #3072	; 0xc00
 8000a66:	6013      	str	r3, [r2, #0]
  GPIOA->CRL |= (0b10 << GPIO_CRL_CNF2_Pos); // Alternate Function outpu Push-pull
 8000a68:	4b1b      	ldr	r3, [pc, #108]	; (8000ad8 <_Z9Uart2_IniP13USART_TypeDefli+0xa0>)
 8000a6a:	681b      	ldr	r3, [r3, #0]
 8000a6c:	4a1a      	ldr	r2, [pc, #104]	; (8000ad8 <_Z9Uart2_IniP13USART_TypeDefli+0xa0>)
 8000a6e:	f443 6300 	orr.w	r3, r3, #2048	; 0x800
 8000a72:	6013      	str	r3, [r2, #0]
  GPIOA->CRL &= ~(GPIO_CRL_MODE2);
 8000a74:	4b18      	ldr	r3, [pc, #96]	; (8000ad8 <_Z9Uart2_IniP13USART_TypeDefli+0xa0>)
 8000a76:	681b      	ldr	r3, [r3, #0]
 8000a78:	4a17      	ldr	r2, [pc, #92]	; (8000ad8 <_Z9Uart2_IniP13USART_TypeDefli+0xa0>)
 8000a7a:	f423 7340 	bic.w	r3, r3, #768	; 0x300
 8000a7e:	6013      	str	r3, [r2, #0]
  GPIOA->CRL |= (0b11 << GPIO_CRL_MODE2_Pos); // Max speed
 8000a80:	4b15      	ldr	r3, [pc, #84]	; (8000ad8 <_Z9Uart2_IniP13USART_TypeDefli+0xa0>)
 8000a82:	681b      	ldr	r3, [r3, #0]
 8000a84:	4a14      	ldr	r2, [pc, #80]	; (8000ad8 <_Z9Uart2_IniP13USART_TypeDefli+0xa0>)
 8000a86:	f443 7340 	orr.w	r3, r3, #768	; 0x300
 8000a8a:	6013      	str	r3, [r2, #0]

  /*  PA3_Rx  */

  /*  конфигурация UART2  */
  UartNumb->CR1 = 0x00;
 8000a8c:	68fb      	ldr	r3, [r7, #12]
 8000a8e:	2200      	movs	r2, #0
 8000a90:	60da      	str	r2, [r3, #12]
  UartNumb->CR1 |= USART_CR1_UE; // разрешаем USART2
 8000a92:	68fb      	ldr	r3, [r7, #12]
 8000a94:	68db      	ldr	r3, [r3, #12]
 8000a96:	f443 5200 	orr.w	r2, r3, #8192	; 0x2000
 8000a9a:	68fb      	ldr	r3, [r7, #12]
 8000a9c:	60da      	str	r2, [r3, #12]

  /*  USARTDIV = Fck / (16 * BAUD) = 72000000 / (16 * 9600) = 468,75        */
  /*  Значение регистра USART_BRR = 468,75 * 16 = 7500 - скорость 9600 бод  */
  // USART2->BRR = 833;  // скорость 9600 бод при частоте 8 Мгц
  UartNumb->BRR = UartBusCLK / BaudRate;
 8000a9e:	68ba      	ldr	r2, [r7, #8]
 8000aa0:	687b      	ldr	r3, [r7, #4]
 8000aa2:	fb92 f3f3 	sdiv	r3, r2, r3
 8000aa6:	461a      	mov	r2, r3
 8000aa8:	68fb      	ldr	r3, [r7, #12]
 8000aaa:	609a      	str	r2, [r3, #8]

 // разрешаем приемник, передатчик и прерывание по приему
  UartNumb->CR1 |= USART_CR1_TE 
 8000aac:	68fb      	ldr	r3, [r7, #12]
 8000aae:	68db      	ldr	r3, [r3, #12]
 8000ab0:	f043 020c 	orr.w	r2, r3, #12
 8000ab4:	68fb      	ldr	r3, [r7, #12]
 8000ab6:	60da      	str	r2, [r3, #12]
                | USART_CR1_RE;

  UartNumb->CR2 = 0;
 8000ab8:	68fb      	ldr	r3, [r7, #12]
 8000aba:	2200      	movs	r2, #0
 8000abc:	611a      	str	r2, [r3, #16]
  UartNumb->CR3 = 0;
 8000abe:	68fb      	ldr	r3, [r7, #12]
 8000ac0:	2200      	movs	r2, #0
 8000ac2:	615a      	str	r2, [r3, #20]

  NVIC_EnableIRQ(USART2_IRQn);
 8000ac4:	2026      	movs	r0, #38	; 0x26
 8000ac6:	f7ff ff61 	bl	800098c <__NVIC_EnableIRQ>
}
 8000aca:	bf00      	nop
 8000acc:	3710      	adds	r7, #16
 8000ace:	46bd      	mov	sp, r7
 8000ad0:	bd80      	pop	{r7, pc}
 8000ad2:	bf00      	nop
 8000ad4:	40021000 	.word	0x40021000
 8000ad8:	40010800 	.word	0x40010800

08000adc <USART2_IRQHandler>:
#ifdef __cplusplus
extern "C"
{
#endif
    void USART2_IRQHandler(void)
    {
 8000adc:	b480      	push	{r7}
 8000ade:	af00      	add	r7, sp, #0
        if (USART2->SR & USART_SR_TXE)
 8000ae0:	4b22      	ldr	r3, [pc, #136]	; (8000b6c <USART2_IRQHandler+0x90>)
 8000ae2:	681b      	ldr	r3, [r3, #0]
 8000ae4:	f003 0380 	and.w	r3, r3, #128	; 0x80
 8000ae8:	2b00      	cmp	r3, #0
 8000aea:	bf14      	ite	ne
 8000aec:	2301      	movne	r3, #1
 8000aee:	2300      	moveq	r3, #0
 8000af0:	b2db      	uxtb	r3, r3
 8000af2:	2b00      	cmp	r3, #0
 8000af4:	d035      	beq.n	8000b62 <USART2_IRQHandler+0x86>
        {
            if (Uart2_Counter < Uart2_Len)
 8000af6:	4b1e      	ldr	r3, [pc, #120]	; (8000b70 <USART2_IRQHandler+0x94>)
 8000af8:	f9b3 2000 	ldrsh.w	r2, [r3]
 8000afc:	4b1d      	ldr	r3, [pc, #116]	; (8000b74 <USART2_IRQHandler+0x98>)
 8000afe:	f9b3 3000 	ldrsh.w	r3, [r3]
 8000b02:	429a      	cmp	r2, r3
 8000b04:	da1a      	bge.n	8000b3c <USART2_IRQHandler+0x60>
            {
                Uart2_Counter++;
 8000b06:	4b1a      	ldr	r3, [pc, #104]	; (8000b70 <USART2_IRQHandler+0x94>)
 8000b08:	f9b3 3000 	ldrsh.w	r3, [r3]
 8000b0c:	b29b      	uxth	r3, r3
 8000b0e:	3301      	adds	r3, #1
 8000b10:	b29b      	uxth	r3, r3
 8000b12:	b21a      	sxth	r2, r3
 8000b14:	4b16      	ldr	r3, [pc, #88]	; (8000b70 <USART2_IRQHandler+0x94>)
 8000b16:	801a      	strh	r2, [r3, #0]
                USART2->DR = Uart2_BufSend[Uart2_Counter];
 8000b18:	4b15      	ldr	r3, [pc, #84]	; (8000b70 <USART2_IRQHandler+0x94>)
 8000b1a:	f9b3 3000 	ldrsh.w	r3, [r3]
 8000b1e:	461a      	mov	r2, r3
 8000b20:	4b15      	ldr	r3, [pc, #84]	; (8000b78 <USART2_IRQHandler+0x9c>)
 8000b22:	5c9a      	ldrb	r2, [r3, r2]
 8000b24:	4b11      	ldr	r3, [pc, #68]	; (8000b6c <USART2_IRQHandler+0x90>)
 8000b26:	605a      	str	r2, [r3, #4]

                USART2->SR = 0x00;
 8000b28:	4b10      	ldr	r3, [pc, #64]	; (8000b6c <USART2_IRQHandler+0x90>)
 8000b2a:	2200      	movs	r2, #0
 8000b2c:	601a      	str	r2, [r3, #0]
                USART2->CR1 &= ~USART_CR1_TCIE;
 8000b2e:	4b0f      	ldr	r3, [pc, #60]	; (8000b6c <USART2_IRQHandler+0x90>)
 8000b30:	68db      	ldr	r3, [r3, #12]
 8000b32:	4a0e      	ldr	r2, [pc, #56]	; (8000b6c <USART2_IRQHandler+0x90>)
 8000b34:	f023 0340 	bic.w	r3, r3, #64	; 0x40
 8000b38:	60d3      	str	r3, [r2, #12]
                Uart2_Len = 0;
                Uart2_BufSend[100] = {0};
                USART2->CR1 &= ~USART_CR1_TXEIE;
            }
        }
    }
 8000b3a:	e012      	b.n	8000b62 <USART2_IRQHandler+0x86>
                Uart2_Cond = 1;
 8000b3c:	4b0f      	ldr	r3, [pc, #60]	; (8000b7c <USART2_IRQHandler+0xa0>)
 8000b3e:	2201      	movs	r2, #1
 8000b40:	801a      	strh	r2, [r3, #0]
                Uart2_Counter = 0;
 8000b42:	4b0b      	ldr	r3, [pc, #44]	; (8000b70 <USART2_IRQHandler+0x94>)
 8000b44:	2200      	movs	r2, #0
 8000b46:	801a      	strh	r2, [r3, #0]
                Uart2_Len = 0;
 8000b48:	4b0a      	ldr	r3, [pc, #40]	; (8000b74 <USART2_IRQHandler+0x98>)
 8000b4a:	2200      	movs	r2, #0
 8000b4c:	801a      	strh	r2, [r3, #0]
                Uart2_BufSend[100] = {0};
 8000b4e:	4b0a      	ldr	r3, [pc, #40]	; (8000b78 <USART2_IRQHandler+0x9c>)
 8000b50:	2200      	movs	r2, #0
 8000b52:	f883 2064 	strb.w	r2, [r3, #100]	; 0x64
                USART2->CR1 &= ~USART_CR1_TXEIE;
 8000b56:	4b05      	ldr	r3, [pc, #20]	; (8000b6c <USART2_IRQHandler+0x90>)
 8000b58:	68db      	ldr	r3, [r3, #12]
 8000b5a:	4a04      	ldr	r2, [pc, #16]	; (8000b6c <USART2_IRQHandler+0x90>)
 8000b5c:	f023 0380 	bic.w	r3, r3, #128	; 0x80
 8000b60:	60d3      	str	r3, [r2, #12]
    }
 8000b62:	bf00      	nop
 8000b64:	46bd      	mov	sp, r7
 8000b66:	bc80      	pop	{r7}
 8000b68:	4770      	bx	lr
 8000b6a:	bf00      	nop
 8000b6c:	40004400 	.word	0x40004400
 8000b70:	2000008c 	.word	0x2000008c
 8000b74:	2000008e 	.word	0x2000008e
 8000b78:	20000090 	.word	0x20000090
 8000b7c:	20000000 	.word	0x20000000

08000b80 <Reset_Handler>:

  .section .text.Reset_Handler
  .weak Reset_Handler
  .type Reset_Handler, %function
Reset_Handler:
  ldr   r0, =_estack
 8000b80:	480d      	ldr	r0, [pc, #52]	; (8000bb8 <LoopForever+0x2>)
  mov   sp, r0          /* set stack pointer */
 8000b82:	4685      	mov	sp, r0
/* Call the clock system initialization function.*/
  bl  SystemInit
 8000b84:	f7ff fcde 	bl	8000544 <SystemInit>

/* Copy the data segment initializers from flash to SRAM */
  ldr r0, =_sdata
 8000b88:	480c      	ldr	r0, [pc, #48]	; (8000bbc <LoopForever+0x6>)
  ldr r1, =_edata
 8000b8a:	490d      	ldr	r1, [pc, #52]	; (8000bc0 <LoopForever+0xa>)
  ldr r2, =_sidata
 8000b8c:	4a0d      	ldr	r2, [pc, #52]	; (8000bc4 <LoopForever+0xe>)
  movs r3, #0
 8000b8e:	2300      	movs	r3, #0
  b LoopCopyDataInit
 8000b90:	e002      	b.n	8000b98 <LoopCopyDataInit>

08000b92 <CopyDataInit>:

CopyDataInit:
  ldr r4, [r2, r3]
 8000b92:	58d4      	ldr	r4, [r2, r3]
  str r4, [r0, r3]
 8000b94:	50c4      	str	r4, [r0, r3]
  adds r3, r3, #4
 8000b96:	3304      	adds	r3, #4

08000b98 <LoopCopyDataInit>:

LoopCopyDataInit:
  adds r4, r0, r3
 8000b98:	18c4      	adds	r4, r0, r3
  cmp r4, r1
 8000b9a:	428c      	cmp	r4, r1
  bcc CopyDataInit
 8000b9c:	d3f9      	bcc.n	8000b92 <CopyDataInit>

/* Zero fill the bss segment. */
  ldr r2, =_sbss
 8000b9e:	4a0a      	ldr	r2, [pc, #40]	; (8000bc8 <LoopForever+0x12>)
  ldr r4, =_ebss
 8000ba0:	4c0a      	ldr	r4, [pc, #40]	; (8000bcc <LoopForever+0x16>)
  movs r3, #0
 8000ba2:	2300      	movs	r3, #0
  b LoopFillZerobss
 8000ba4:	e001      	b.n	8000baa <LoopFillZerobss>

08000ba6 <FillZerobss>:

FillZerobss:
  str  r3, [r2]
 8000ba6:	6013      	str	r3, [r2, #0]
  adds r2, r2, #4
 8000ba8:	3204      	adds	r2, #4

08000baa <LoopFillZerobss>:

LoopFillZerobss:
  cmp r2, r4
 8000baa:	42a2      	cmp	r2, r4
  bcc FillZerobss
 8000bac:	d3fb      	bcc.n	8000ba6 <FillZerobss>

/* Call static constructors */
  bl __libc_init_array
 8000bae:	f000 f817 	bl	8000be0 <__libc_init_array>
/* Call the application's entry point.*/
  bl main
 8000bb2:	f7ff fbab 	bl	800030c <main>

08000bb6 <LoopForever>:

LoopForever:
    b LoopForever
 8000bb6:	e7fe      	b.n	8000bb6 <LoopForever>
  ldr   r0, =_estack
 8000bb8:	20005000 	.word	0x20005000
  ldr r0, =_sdata
 8000bbc:	20000000 	.word	0x20000000
  ldr r1, =_edata
 8000bc0:	20000068 	.word	0x20000068
  ldr r2, =_sidata
 8000bc4:	080015bc 	.word	0x080015bc
  ldr r2, =_sbss
 8000bc8:	20000068 	.word	0x20000068
  ldr r4, =_ebss
 8000bcc:	20000104 	.word	0x20000104

08000bd0 <ADC3_IRQHandler>:
 * @retval : None
*/
  .section .text.Default_Handler,"ax",%progbits
Default_Handler:
Infinite_Loop:
  b Infinite_Loop
 8000bd0:	e7fe      	b.n	8000bd0 <ADC3_IRQHandler>
	...

08000bd4 <__errno>:
 8000bd4:	4b01      	ldr	r3, [pc, #4]	; (8000bdc <__errno+0x8>)
 8000bd6:	6818      	ldr	r0, [r3, #0]
 8000bd8:	4770      	bx	lr
 8000bda:	bf00      	nop
 8000bdc:	20000004 	.word	0x20000004

08000be0 <__libc_init_array>:
 8000be0:	b570      	push	{r4, r5, r6, lr}
 8000be2:	2600      	movs	r6, #0
 8000be4:	4d0c      	ldr	r5, [pc, #48]	; (8000c18 <__libc_init_array+0x38>)
 8000be6:	4c0d      	ldr	r4, [pc, #52]	; (8000c1c <__libc_init_array+0x3c>)
 8000be8:	1b64      	subs	r4, r4, r5
 8000bea:	10a4      	asrs	r4, r4, #2
 8000bec:	42a6      	cmp	r6, r4
 8000bee:	d109      	bne.n	8000c04 <__libc_init_array+0x24>
 8000bf0:	f000 fc9c 	bl	800152c <_init>
 8000bf4:	2600      	movs	r6, #0
 8000bf6:	4d0a      	ldr	r5, [pc, #40]	; (8000c20 <__libc_init_array+0x40>)
 8000bf8:	4c0a      	ldr	r4, [pc, #40]	; (8000c24 <__libc_init_array+0x44>)
 8000bfa:	1b64      	subs	r4, r4, r5
 8000bfc:	10a4      	asrs	r4, r4, #2
 8000bfe:	42a6      	cmp	r6, r4
 8000c00:	d105      	bne.n	8000c0e <__libc_init_array+0x2e>
 8000c02:	bd70      	pop	{r4, r5, r6, pc}
 8000c04:	f855 3b04 	ldr.w	r3, [r5], #4
 8000c08:	4798      	blx	r3
 8000c0a:	3601      	adds	r6, #1
 8000c0c:	e7ee      	b.n	8000bec <__libc_init_array+0xc>
 8000c0e:	f855 3b04 	ldr.w	r3, [r5], #4
 8000c12:	4798      	blx	r3
 8000c14:	3601      	adds	r6, #1
 8000c16:	e7f2      	b.n	8000bfe <__libc_init_array+0x1e>
 8000c18:	080015b4 	.word	0x080015b4
 8000c1c:	080015b4 	.word	0x080015b4
 8000c20:	080015b4 	.word	0x080015b4
 8000c24:	080015b8 	.word	0x080015b8

08000c28 <siprintf>:
 8000c28:	b40e      	push	{r1, r2, r3}
 8000c2a:	f06f 4100 	mvn.w	r1, #2147483648	; 0x80000000
 8000c2e:	b500      	push	{lr}
 8000c30:	b09c      	sub	sp, #112	; 0x70
 8000c32:	ab1d      	add	r3, sp, #116	; 0x74
 8000c34:	9002      	str	r0, [sp, #8]
 8000c36:	9006      	str	r0, [sp, #24]
 8000c38:	9107      	str	r1, [sp, #28]
 8000c3a:	9104      	str	r1, [sp, #16]
 8000c3c:	4808      	ldr	r0, [pc, #32]	; (8000c60 <siprintf+0x38>)
 8000c3e:	4909      	ldr	r1, [pc, #36]	; (8000c64 <siprintf+0x3c>)
 8000c40:	f853 2b04 	ldr.w	r2, [r3], #4
 8000c44:	9105      	str	r1, [sp, #20]
 8000c46:	6800      	ldr	r0, [r0, #0]
 8000c48:	a902      	add	r1, sp, #8
 8000c4a:	9301      	str	r3, [sp, #4]
 8000c4c:	f000 f870 	bl	8000d30 <_svfiprintf_r>
 8000c50:	2200      	movs	r2, #0
 8000c52:	9b02      	ldr	r3, [sp, #8]
 8000c54:	701a      	strb	r2, [r3, #0]
 8000c56:	b01c      	add	sp, #112	; 0x70
 8000c58:	f85d eb04 	ldr.w	lr, [sp], #4
 8000c5c:	b003      	add	sp, #12
 8000c5e:	4770      	bx	lr
 8000c60:	20000004 	.word	0x20000004
 8000c64:	ffff0208 	.word	0xffff0208

08000c68 <strcpy>:
 8000c68:	4603      	mov	r3, r0
 8000c6a:	f811 2b01 	ldrb.w	r2, [r1], #1
 8000c6e:	f803 2b01 	strb.w	r2, [r3], #1
 8000c72:	2a00      	cmp	r2, #0
 8000c74:	d1f9      	bne.n	8000c6a <strcpy+0x2>
 8000c76:	4770      	bx	lr

08000c78 <__ssputs_r>:
 8000c78:	e92d 47f0 	stmdb	sp!, {r4, r5, r6, r7, r8, r9, sl, lr}
 8000c7c:	688e      	ldr	r6, [r1, #8]
 8000c7e:	4682      	mov	sl, r0
 8000c80:	429e      	cmp	r6, r3
 8000c82:	460c      	mov	r4, r1
 8000c84:	4690      	mov	r8, r2
 8000c86:	461f      	mov	r7, r3
 8000c88:	d838      	bhi.n	8000cfc <__ssputs_r+0x84>
 8000c8a:	898a      	ldrh	r2, [r1, #12]
 8000c8c:	f412 6f90 	tst.w	r2, #1152	; 0x480
 8000c90:	d032      	beq.n	8000cf8 <__ssputs_r+0x80>
 8000c92:	6825      	ldr	r5, [r4, #0]
 8000c94:	6909      	ldr	r1, [r1, #16]
 8000c96:	3301      	adds	r3, #1
 8000c98:	eba5 0901 	sub.w	r9, r5, r1
 8000c9c:	6965      	ldr	r5, [r4, #20]
 8000c9e:	444b      	add	r3, r9
 8000ca0:	eb05 0545 	add.w	r5, r5, r5, lsl #1
 8000ca4:	eb05 75d5 	add.w	r5, r5, r5, lsr #31
 8000ca8:	106d      	asrs	r5, r5, #1
 8000caa:	429d      	cmp	r5, r3
 8000cac:	bf38      	it	cc
 8000cae:	461d      	movcc	r5, r3
 8000cb0:	0553      	lsls	r3, r2, #21
 8000cb2:	d531      	bpl.n	8000d18 <__ssputs_r+0xa0>
 8000cb4:	4629      	mov	r1, r5
 8000cb6:	f000 fb6f 	bl	8001398 <_malloc_r>
 8000cba:	4606      	mov	r6, r0
 8000cbc:	b950      	cbnz	r0, 8000cd4 <__ssputs_r+0x5c>
 8000cbe:	230c      	movs	r3, #12
 8000cc0:	f04f 30ff 	mov.w	r0, #4294967295
 8000cc4:	f8ca 3000 	str.w	r3, [sl]
 8000cc8:	89a3      	ldrh	r3, [r4, #12]
 8000cca:	f043 0340 	orr.w	r3, r3, #64	; 0x40
 8000cce:	81a3      	strh	r3, [r4, #12]
 8000cd0:	e8bd 87f0 	ldmia.w	sp!, {r4, r5, r6, r7, r8, r9, sl, pc}
 8000cd4:	464a      	mov	r2, r9
 8000cd6:	6921      	ldr	r1, [r4, #16]
 8000cd8:	f000 face 	bl	8001278 <memcpy>
 8000cdc:	89a3      	ldrh	r3, [r4, #12]
 8000cde:	f423 6390 	bic.w	r3, r3, #1152	; 0x480
 8000ce2:	f043 0380 	orr.w	r3, r3, #128	; 0x80
 8000ce6:	81a3      	strh	r3, [r4, #12]
 8000ce8:	6126      	str	r6, [r4, #16]
 8000cea:	444e      	add	r6, r9
 8000cec:	6026      	str	r6, [r4, #0]
 8000cee:	463e      	mov	r6, r7
 8000cf0:	6165      	str	r5, [r4, #20]
 8000cf2:	eba5 0509 	sub.w	r5, r5, r9
 8000cf6:	60a5      	str	r5, [r4, #8]
 8000cf8:	42be      	cmp	r6, r7
 8000cfa:	d900      	bls.n	8000cfe <__ssputs_r+0x86>
 8000cfc:	463e      	mov	r6, r7
 8000cfe:	4632      	mov	r2, r6
 8000d00:	4641      	mov	r1, r8
 8000d02:	6820      	ldr	r0, [r4, #0]
 8000d04:	f000 fac6 	bl	8001294 <memmove>
 8000d08:	68a3      	ldr	r3, [r4, #8]
 8000d0a:	2000      	movs	r0, #0
 8000d0c:	1b9b      	subs	r3, r3, r6
 8000d0e:	60a3      	str	r3, [r4, #8]
 8000d10:	6823      	ldr	r3, [r4, #0]
 8000d12:	4433      	add	r3, r6
 8000d14:	6023      	str	r3, [r4, #0]
 8000d16:	e7db      	b.n	8000cd0 <__ssputs_r+0x58>
 8000d18:	462a      	mov	r2, r5
 8000d1a:	f000 fbb1 	bl	8001480 <_realloc_r>
 8000d1e:	4606      	mov	r6, r0
 8000d20:	2800      	cmp	r0, #0
 8000d22:	d1e1      	bne.n	8000ce8 <__ssputs_r+0x70>
 8000d24:	4650      	mov	r0, sl
 8000d26:	6921      	ldr	r1, [r4, #16]
 8000d28:	f000 face 	bl	80012c8 <_free_r>
 8000d2c:	e7c7      	b.n	8000cbe <__ssputs_r+0x46>
	...

08000d30 <_svfiprintf_r>:
 8000d30:	e92d 4ff0 	stmdb	sp!, {r4, r5, r6, r7, r8, r9, sl, fp, lr}
 8000d34:	4698      	mov	r8, r3
 8000d36:	898b      	ldrh	r3, [r1, #12]
 8000d38:	4607      	mov	r7, r0
 8000d3a:	061b      	lsls	r3, r3, #24
 8000d3c:	460d      	mov	r5, r1
 8000d3e:	4614      	mov	r4, r2
 8000d40:	b09d      	sub	sp, #116	; 0x74
 8000d42:	d50e      	bpl.n	8000d62 <_svfiprintf_r+0x32>
 8000d44:	690b      	ldr	r3, [r1, #16]
 8000d46:	b963      	cbnz	r3, 8000d62 <_svfiprintf_r+0x32>
 8000d48:	2140      	movs	r1, #64	; 0x40
 8000d4a:	f000 fb25 	bl	8001398 <_malloc_r>
 8000d4e:	6028      	str	r0, [r5, #0]
 8000d50:	6128      	str	r0, [r5, #16]
 8000d52:	b920      	cbnz	r0, 8000d5e <_svfiprintf_r+0x2e>
 8000d54:	230c      	movs	r3, #12
 8000d56:	603b      	str	r3, [r7, #0]
 8000d58:	f04f 30ff 	mov.w	r0, #4294967295
 8000d5c:	e0d1      	b.n	8000f02 <_svfiprintf_r+0x1d2>
 8000d5e:	2340      	movs	r3, #64	; 0x40
 8000d60:	616b      	str	r3, [r5, #20]
 8000d62:	2300      	movs	r3, #0
 8000d64:	9309      	str	r3, [sp, #36]	; 0x24
 8000d66:	2320      	movs	r3, #32
 8000d68:	f88d 3029 	strb.w	r3, [sp, #41]	; 0x29
 8000d6c:	2330      	movs	r3, #48	; 0x30
 8000d6e:	f04f 0901 	mov.w	r9, #1
 8000d72:	f8cd 800c 	str.w	r8, [sp, #12]
 8000d76:	f8df 81a4 	ldr.w	r8, [pc, #420]	; 8000f1c <_svfiprintf_r+0x1ec>
 8000d7a:	f88d 302a 	strb.w	r3, [sp, #42]	; 0x2a
 8000d7e:	4623      	mov	r3, r4
 8000d80:	469a      	mov	sl, r3
 8000d82:	f813 2b01 	ldrb.w	r2, [r3], #1
 8000d86:	b10a      	cbz	r2, 8000d8c <_svfiprintf_r+0x5c>
 8000d88:	2a25      	cmp	r2, #37	; 0x25
 8000d8a:	d1f9      	bne.n	8000d80 <_svfiprintf_r+0x50>
 8000d8c:	ebba 0b04 	subs.w	fp, sl, r4
 8000d90:	d00b      	beq.n	8000daa <_svfiprintf_r+0x7a>
 8000d92:	465b      	mov	r3, fp
 8000d94:	4622      	mov	r2, r4
 8000d96:	4629      	mov	r1, r5
 8000d98:	4638      	mov	r0, r7
 8000d9a:	f7ff ff6d 	bl	8000c78 <__ssputs_r>
 8000d9e:	3001      	adds	r0, #1
 8000da0:	f000 80aa 	beq.w	8000ef8 <_svfiprintf_r+0x1c8>
 8000da4:	9a09      	ldr	r2, [sp, #36]	; 0x24
 8000da6:	445a      	add	r2, fp
 8000da8:	9209      	str	r2, [sp, #36]	; 0x24
 8000daa:	f89a 3000 	ldrb.w	r3, [sl]
 8000dae:	2b00      	cmp	r3, #0
 8000db0:	f000 80a2 	beq.w	8000ef8 <_svfiprintf_r+0x1c8>
 8000db4:	2300      	movs	r3, #0
 8000db6:	f04f 32ff 	mov.w	r2, #4294967295
 8000dba:	e9cd 2305 	strd	r2, r3, [sp, #20]
 8000dbe:	f10a 0a01 	add.w	sl, sl, #1
 8000dc2:	9304      	str	r3, [sp, #16]
 8000dc4:	9307      	str	r3, [sp, #28]
 8000dc6:	f88d 3053 	strb.w	r3, [sp, #83]	; 0x53
 8000dca:	931a      	str	r3, [sp, #104]	; 0x68
 8000dcc:	4654      	mov	r4, sl
 8000dce:	2205      	movs	r2, #5
 8000dd0:	f814 1b01 	ldrb.w	r1, [r4], #1
 8000dd4:	4851      	ldr	r0, [pc, #324]	; (8000f1c <_svfiprintf_r+0x1ec>)
 8000dd6:	f000 fa41 	bl	800125c <memchr>
 8000dda:	9a04      	ldr	r2, [sp, #16]
 8000ddc:	b9d8      	cbnz	r0, 8000e16 <_svfiprintf_r+0xe6>
 8000dde:	06d0      	lsls	r0, r2, #27
 8000de0:	bf44      	itt	mi
 8000de2:	2320      	movmi	r3, #32
 8000de4:	f88d 3053 	strbmi.w	r3, [sp, #83]	; 0x53
 8000de8:	0711      	lsls	r1, r2, #28
 8000dea:	bf44      	itt	mi
 8000dec:	232b      	movmi	r3, #43	; 0x2b
 8000dee:	f88d 3053 	strbmi.w	r3, [sp, #83]	; 0x53
 8000df2:	f89a 3000 	ldrb.w	r3, [sl]
 8000df6:	2b2a      	cmp	r3, #42	; 0x2a
 8000df8:	d015      	beq.n	8000e26 <_svfiprintf_r+0xf6>
 8000dfa:	4654      	mov	r4, sl
 8000dfc:	2000      	movs	r0, #0
 8000dfe:	f04f 0c0a 	mov.w	ip, #10
 8000e02:	9a07      	ldr	r2, [sp, #28]
 8000e04:	4621      	mov	r1, r4
 8000e06:	f811 3b01 	ldrb.w	r3, [r1], #1
 8000e0a:	3b30      	subs	r3, #48	; 0x30
 8000e0c:	2b09      	cmp	r3, #9
 8000e0e:	d94e      	bls.n	8000eae <_svfiprintf_r+0x17e>
 8000e10:	b1b0      	cbz	r0, 8000e40 <_svfiprintf_r+0x110>
 8000e12:	9207      	str	r2, [sp, #28]
 8000e14:	e014      	b.n	8000e40 <_svfiprintf_r+0x110>
 8000e16:	eba0 0308 	sub.w	r3, r0, r8
 8000e1a:	fa09 f303 	lsl.w	r3, r9, r3
 8000e1e:	4313      	orrs	r3, r2
 8000e20:	46a2      	mov	sl, r4
 8000e22:	9304      	str	r3, [sp, #16]
 8000e24:	e7d2      	b.n	8000dcc <_svfiprintf_r+0x9c>
 8000e26:	9b03      	ldr	r3, [sp, #12]
 8000e28:	1d19      	adds	r1, r3, #4
 8000e2a:	681b      	ldr	r3, [r3, #0]
 8000e2c:	9103      	str	r1, [sp, #12]
 8000e2e:	2b00      	cmp	r3, #0
 8000e30:	bfbb      	ittet	lt
 8000e32:	425b      	neglt	r3, r3
 8000e34:	f042 0202 	orrlt.w	r2, r2, #2
 8000e38:	9307      	strge	r3, [sp, #28]
 8000e3a:	9307      	strlt	r3, [sp, #28]
 8000e3c:	bfb8      	it	lt
 8000e3e:	9204      	strlt	r2, [sp, #16]
 8000e40:	7823      	ldrb	r3, [r4, #0]
 8000e42:	2b2e      	cmp	r3, #46	; 0x2e
 8000e44:	d10c      	bne.n	8000e60 <_svfiprintf_r+0x130>
 8000e46:	7863      	ldrb	r3, [r4, #1]
 8000e48:	2b2a      	cmp	r3, #42	; 0x2a
 8000e4a:	d135      	bne.n	8000eb8 <_svfiprintf_r+0x188>
 8000e4c:	9b03      	ldr	r3, [sp, #12]
 8000e4e:	3402      	adds	r4, #2
 8000e50:	1d1a      	adds	r2, r3, #4
 8000e52:	681b      	ldr	r3, [r3, #0]
 8000e54:	9203      	str	r2, [sp, #12]
 8000e56:	2b00      	cmp	r3, #0
 8000e58:	bfb8      	it	lt
 8000e5a:	f04f 33ff 	movlt.w	r3, #4294967295
 8000e5e:	9305      	str	r3, [sp, #20]
 8000e60:	f8df a0bc 	ldr.w	sl, [pc, #188]	; 8000f20 <_svfiprintf_r+0x1f0>
 8000e64:	2203      	movs	r2, #3
 8000e66:	4650      	mov	r0, sl
 8000e68:	7821      	ldrb	r1, [r4, #0]
 8000e6a:	f000 f9f7 	bl	800125c <memchr>
 8000e6e:	b140      	cbz	r0, 8000e82 <_svfiprintf_r+0x152>
 8000e70:	2340      	movs	r3, #64	; 0x40
 8000e72:	eba0 000a 	sub.w	r0, r0, sl
 8000e76:	fa03 f000 	lsl.w	r0, r3, r0
 8000e7a:	9b04      	ldr	r3, [sp, #16]
 8000e7c:	3401      	adds	r4, #1
 8000e7e:	4303      	orrs	r3, r0
 8000e80:	9304      	str	r3, [sp, #16]
 8000e82:	f814 1b01 	ldrb.w	r1, [r4], #1
 8000e86:	2206      	movs	r2, #6
 8000e88:	4826      	ldr	r0, [pc, #152]	; (8000f24 <_svfiprintf_r+0x1f4>)
 8000e8a:	f88d 1028 	strb.w	r1, [sp, #40]	; 0x28
 8000e8e:	f000 f9e5 	bl	800125c <memchr>
 8000e92:	2800      	cmp	r0, #0
 8000e94:	d038      	beq.n	8000f08 <_svfiprintf_r+0x1d8>
 8000e96:	4b24      	ldr	r3, [pc, #144]	; (8000f28 <_svfiprintf_r+0x1f8>)
 8000e98:	bb1b      	cbnz	r3, 8000ee2 <_svfiprintf_r+0x1b2>
 8000e9a:	9b03      	ldr	r3, [sp, #12]
 8000e9c:	3307      	adds	r3, #7
 8000e9e:	f023 0307 	bic.w	r3, r3, #7
 8000ea2:	3308      	adds	r3, #8
 8000ea4:	9303      	str	r3, [sp, #12]
 8000ea6:	9b09      	ldr	r3, [sp, #36]	; 0x24
 8000ea8:	4433      	add	r3, r6
 8000eaa:	9309      	str	r3, [sp, #36]	; 0x24
 8000eac:	e767      	b.n	8000d7e <_svfiprintf_r+0x4e>
 8000eae:	460c      	mov	r4, r1
 8000eb0:	2001      	movs	r0, #1
 8000eb2:	fb0c 3202 	mla	r2, ip, r2, r3
 8000eb6:	e7a5      	b.n	8000e04 <_svfiprintf_r+0xd4>
 8000eb8:	2300      	movs	r3, #0
 8000eba:	f04f 0c0a 	mov.w	ip, #10
 8000ebe:	4619      	mov	r1, r3
 8000ec0:	3401      	adds	r4, #1
 8000ec2:	9305      	str	r3, [sp, #20]
 8000ec4:	4620      	mov	r0, r4
 8000ec6:	f810 2b01 	ldrb.w	r2, [r0], #1
 8000eca:	3a30      	subs	r2, #48	; 0x30
 8000ecc:	2a09      	cmp	r2, #9
 8000ece:	d903      	bls.n	8000ed8 <_svfiprintf_r+0x1a8>
 8000ed0:	2b00      	cmp	r3, #0
 8000ed2:	d0c5      	beq.n	8000e60 <_svfiprintf_r+0x130>
 8000ed4:	9105      	str	r1, [sp, #20]
 8000ed6:	e7c3      	b.n	8000e60 <_svfiprintf_r+0x130>
 8000ed8:	4604      	mov	r4, r0
 8000eda:	2301      	movs	r3, #1
 8000edc:	fb0c 2101 	mla	r1, ip, r1, r2
 8000ee0:	e7f0      	b.n	8000ec4 <_svfiprintf_r+0x194>
 8000ee2:	ab03      	add	r3, sp, #12
 8000ee4:	9300      	str	r3, [sp, #0]
 8000ee6:	462a      	mov	r2, r5
 8000ee8:	4638      	mov	r0, r7
 8000eea:	4b10      	ldr	r3, [pc, #64]	; (8000f2c <_svfiprintf_r+0x1fc>)
 8000eec:	a904      	add	r1, sp, #16
 8000eee:	f3af 8000 	nop.w
 8000ef2:	1c42      	adds	r2, r0, #1
 8000ef4:	4606      	mov	r6, r0
 8000ef6:	d1d6      	bne.n	8000ea6 <_svfiprintf_r+0x176>
 8000ef8:	89ab      	ldrh	r3, [r5, #12]
 8000efa:	065b      	lsls	r3, r3, #25
 8000efc:	f53f af2c 	bmi.w	8000d58 <_svfiprintf_r+0x28>
 8000f00:	9809      	ldr	r0, [sp, #36]	; 0x24
 8000f02:	b01d      	add	sp, #116	; 0x74
 8000f04:	e8bd 8ff0 	ldmia.w	sp!, {r4, r5, r6, r7, r8, r9, sl, fp, pc}
 8000f08:	ab03      	add	r3, sp, #12
 8000f0a:	9300      	str	r3, [sp, #0]
 8000f0c:	462a      	mov	r2, r5
 8000f0e:	4638      	mov	r0, r7
 8000f10:	4b06      	ldr	r3, [pc, #24]	; (8000f2c <_svfiprintf_r+0x1fc>)
 8000f12:	a904      	add	r1, sp, #16
 8000f14:	f000 f87c 	bl	8001010 <_printf_i>
 8000f18:	e7eb      	b.n	8000ef2 <_svfiprintf_r+0x1c2>
 8000f1a:	bf00      	nop
 8000f1c:	08001580 	.word	0x08001580
 8000f20:	08001586 	.word	0x08001586
 8000f24:	0800158a 	.word	0x0800158a
 8000f28:	00000000 	.word	0x00000000
 8000f2c:	08000c79 	.word	0x08000c79

08000f30 <_printf_common>:
 8000f30:	e92d 47f0 	stmdb	sp!, {r4, r5, r6, r7, r8, r9, sl, lr}
 8000f34:	4616      	mov	r6, r2
 8000f36:	4699      	mov	r9, r3
 8000f38:	688a      	ldr	r2, [r1, #8]
 8000f3a:	690b      	ldr	r3, [r1, #16]
 8000f3c:	4607      	mov	r7, r0
 8000f3e:	4293      	cmp	r3, r2
 8000f40:	bfb8      	it	lt
 8000f42:	4613      	movlt	r3, r2
 8000f44:	6033      	str	r3, [r6, #0]
 8000f46:	f891 2043 	ldrb.w	r2, [r1, #67]	; 0x43
 8000f4a:	460c      	mov	r4, r1
 8000f4c:	f8dd 8020 	ldr.w	r8, [sp, #32]
 8000f50:	b10a      	cbz	r2, 8000f56 <_printf_common+0x26>
 8000f52:	3301      	adds	r3, #1
 8000f54:	6033      	str	r3, [r6, #0]
 8000f56:	6823      	ldr	r3, [r4, #0]
 8000f58:	0699      	lsls	r1, r3, #26
 8000f5a:	bf42      	ittt	mi
 8000f5c:	6833      	ldrmi	r3, [r6, #0]
 8000f5e:	3302      	addmi	r3, #2
 8000f60:	6033      	strmi	r3, [r6, #0]
 8000f62:	6825      	ldr	r5, [r4, #0]
 8000f64:	f015 0506 	ands.w	r5, r5, #6
 8000f68:	d106      	bne.n	8000f78 <_printf_common+0x48>
 8000f6a:	f104 0a19 	add.w	sl, r4, #25
 8000f6e:	68e3      	ldr	r3, [r4, #12]
 8000f70:	6832      	ldr	r2, [r6, #0]
 8000f72:	1a9b      	subs	r3, r3, r2
 8000f74:	42ab      	cmp	r3, r5
 8000f76:	dc28      	bgt.n	8000fca <_printf_common+0x9a>
 8000f78:	f894 2043 	ldrb.w	r2, [r4, #67]	; 0x43
 8000f7c:	1e13      	subs	r3, r2, #0
 8000f7e:	6822      	ldr	r2, [r4, #0]
 8000f80:	bf18      	it	ne
 8000f82:	2301      	movne	r3, #1
 8000f84:	0692      	lsls	r2, r2, #26
 8000f86:	d42d      	bmi.n	8000fe4 <_printf_common+0xb4>
 8000f88:	4649      	mov	r1, r9
 8000f8a:	4638      	mov	r0, r7
 8000f8c:	f104 0243 	add.w	r2, r4, #67	; 0x43
 8000f90:	47c0      	blx	r8
 8000f92:	3001      	adds	r0, #1
 8000f94:	d020      	beq.n	8000fd8 <_printf_common+0xa8>
 8000f96:	6823      	ldr	r3, [r4, #0]
 8000f98:	68e5      	ldr	r5, [r4, #12]
 8000f9a:	f003 0306 	and.w	r3, r3, #6
 8000f9e:	2b04      	cmp	r3, #4
 8000fa0:	bf18      	it	ne
 8000fa2:	2500      	movne	r5, #0
 8000fa4:	6832      	ldr	r2, [r6, #0]
 8000fa6:	f04f 0600 	mov.w	r6, #0
 8000faa:	68a3      	ldr	r3, [r4, #8]
 8000fac:	bf08      	it	eq
 8000fae:	1aad      	subeq	r5, r5, r2
 8000fb0:	6922      	ldr	r2, [r4, #16]
 8000fb2:	bf08      	it	eq
 8000fb4:	ea25 75e5 	biceq.w	r5, r5, r5, asr #31
 8000fb8:	4293      	cmp	r3, r2
 8000fba:	bfc4      	itt	gt
 8000fbc:	1a9b      	subgt	r3, r3, r2
 8000fbe:	18ed      	addgt	r5, r5, r3
 8000fc0:	341a      	adds	r4, #26
 8000fc2:	42b5      	cmp	r5, r6
 8000fc4:	d11a      	bne.n	8000ffc <_printf_common+0xcc>
 8000fc6:	2000      	movs	r0, #0
 8000fc8:	e008      	b.n	8000fdc <_printf_common+0xac>
 8000fca:	2301      	movs	r3, #1
 8000fcc:	4652      	mov	r2, sl
 8000fce:	4649      	mov	r1, r9
 8000fd0:	4638      	mov	r0, r7
 8000fd2:	47c0      	blx	r8
 8000fd4:	3001      	adds	r0, #1
 8000fd6:	d103      	bne.n	8000fe0 <_printf_common+0xb0>
 8000fd8:	f04f 30ff 	mov.w	r0, #4294967295
 8000fdc:	e8bd 87f0 	ldmia.w	sp!, {r4, r5, r6, r7, r8, r9, sl, pc}
 8000fe0:	3501      	adds	r5, #1
 8000fe2:	e7c4      	b.n	8000f6e <_printf_common+0x3e>
 8000fe4:	2030      	movs	r0, #48	; 0x30
 8000fe6:	18e1      	adds	r1, r4, r3
 8000fe8:	f881 0043 	strb.w	r0, [r1, #67]	; 0x43
 8000fec:	1c5a      	adds	r2, r3, #1
 8000fee:	f894 1045 	ldrb.w	r1, [r4, #69]	; 0x45
 8000ff2:	4422      	add	r2, r4
 8000ff4:	3302      	adds	r3, #2
 8000ff6:	f882 1043 	strb.w	r1, [r2, #67]	; 0x43
 8000ffa:	e7c5      	b.n	8000f88 <_printf_common+0x58>
 8000ffc:	2301      	movs	r3, #1
 8000ffe:	4622      	mov	r2, r4
 8001000:	4649      	mov	r1, r9
 8001002:	4638      	mov	r0, r7
 8001004:	47c0      	blx	r8
 8001006:	3001      	adds	r0, #1
 8001008:	d0e6      	beq.n	8000fd8 <_printf_common+0xa8>
 800100a:	3601      	adds	r6, #1
 800100c:	e7d9      	b.n	8000fc2 <_printf_common+0x92>
	...

08001010 <_printf_i>:
 8001010:	e92d 47ff 	stmdb	sp!, {r0, r1, r2, r3, r4, r5, r6, r7, r8, r9, sl, lr}
 8001014:	7e0f      	ldrb	r7, [r1, #24]
 8001016:	4691      	mov	r9, r2
 8001018:	2f78      	cmp	r7, #120	; 0x78
 800101a:	4680      	mov	r8, r0
 800101c:	460c      	mov	r4, r1
 800101e:	469a      	mov	sl, r3
 8001020:	9d0c      	ldr	r5, [sp, #48]	; 0x30
 8001022:	f101 0243 	add.w	r2, r1, #67	; 0x43
 8001026:	d807      	bhi.n	8001038 <_printf_i+0x28>
 8001028:	2f62      	cmp	r7, #98	; 0x62
 800102a:	d80a      	bhi.n	8001042 <_printf_i+0x32>
 800102c:	2f00      	cmp	r7, #0
 800102e:	f000 80d9 	beq.w	80011e4 <_printf_i+0x1d4>
 8001032:	2f58      	cmp	r7, #88	; 0x58
 8001034:	f000 80a4 	beq.w	8001180 <_printf_i+0x170>
 8001038:	f104 0542 	add.w	r5, r4, #66	; 0x42
 800103c:	f884 7042 	strb.w	r7, [r4, #66]	; 0x42
 8001040:	e03a      	b.n	80010b8 <_printf_i+0xa8>
 8001042:	f1a7 0363 	sub.w	r3, r7, #99	; 0x63
 8001046:	2b15      	cmp	r3, #21
 8001048:	d8f6      	bhi.n	8001038 <_printf_i+0x28>
 800104a:	a101      	add	r1, pc, #4	; (adr r1, 8001050 <_printf_i+0x40>)
 800104c:	f851 f023 	ldr.w	pc, [r1, r3, lsl #2]
 8001050:	080010a9 	.word	0x080010a9
 8001054:	080010bd 	.word	0x080010bd
 8001058:	08001039 	.word	0x08001039
 800105c:	08001039 	.word	0x08001039
 8001060:	08001039 	.word	0x08001039
 8001064:	08001039 	.word	0x08001039
 8001068:	080010bd 	.word	0x080010bd
 800106c:	08001039 	.word	0x08001039
 8001070:	08001039 	.word	0x08001039
 8001074:	08001039 	.word	0x08001039
 8001078:	08001039 	.word	0x08001039
 800107c:	080011cb 	.word	0x080011cb
 8001080:	080010ed 	.word	0x080010ed
 8001084:	080011ad 	.word	0x080011ad
 8001088:	08001039 	.word	0x08001039
 800108c:	08001039 	.word	0x08001039
 8001090:	080011ed 	.word	0x080011ed
 8001094:	08001039 	.word	0x08001039
 8001098:	080010ed 	.word	0x080010ed
 800109c:	08001039 	.word	0x08001039
 80010a0:	08001039 	.word	0x08001039
 80010a4:	080011b5 	.word	0x080011b5
 80010a8:	682b      	ldr	r3, [r5, #0]
 80010aa:	1d1a      	adds	r2, r3, #4
 80010ac:	681b      	ldr	r3, [r3, #0]
 80010ae:	602a      	str	r2, [r5, #0]
 80010b0:	f104 0542 	add.w	r5, r4, #66	; 0x42
 80010b4:	f884 3042 	strb.w	r3, [r4, #66]	; 0x42
 80010b8:	2301      	movs	r3, #1
 80010ba:	e0a4      	b.n	8001206 <_printf_i+0x1f6>
 80010bc:	6820      	ldr	r0, [r4, #0]
 80010be:	6829      	ldr	r1, [r5, #0]
 80010c0:	0606      	lsls	r6, r0, #24
 80010c2:	f101 0304 	add.w	r3, r1, #4
 80010c6:	d50a      	bpl.n	80010de <_printf_i+0xce>
 80010c8:	680e      	ldr	r6, [r1, #0]
 80010ca:	602b      	str	r3, [r5, #0]
 80010cc:	2e00      	cmp	r6, #0
 80010ce:	da03      	bge.n	80010d8 <_printf_i+0xc8>
 80010d0:	232d      	movs	r3, #45	; 0x2d
 80010d2:	4276      	negs	r6, r6
 80010d4:	f884 3043 	strb.w	r3, [r4, #67]	; 0x43
 80010d8:	230a      	movs	r3, #10
 80010da:	485e      	ldr	r0, [pc, #376]	; (8001254 <_printf_i+0x244>)
 80010dc:	e019      	b.n	8001112 <_printf_i+0x102>
 80010de:	680e      	ldr	r6, [r1, #0]
 80010e0:	f010 0f40 	tst.w	r0, #64	; 0x40
 80010e4:	602b      	str	r3, [r5, #0]
 80010e6:	bf18      	it	ne
 80010e8:	b236      	sxthne	r6, r6
 80010ea:	e7ef      	b.n	80010cc <_printf_i+0xbc>
 80010ec:	682b      	ldr	r3, [r5, #0]
 80010ee:	6820      	ldr	r0, [r4, #0]
 80010f0:	1d19      	adds	r1, r3, #4
 80010f2:	6029      	str	r1, [r5, #0]
 80010f4:	0601      	lsls	r1, r0, #24
 80010f6:	d501      	bpl.n	80010fc <_printf_i+0xec>
 80010f8:	681e      	ldr	r6, [r3, #0]
 80010fa:	e002      	b.n	8001102 <_printf_i+0xf2>
 80010fc:	0646      	lsls	r6, r0, #25
 80010fe:	d5fb      	bpl.n	80010f8 <_printf_i+0xe8>
 8001100:	881e      	ldrh	r6, [r3, #0]
 8001102:	2f6f      	cmp	r7, #111	; 0x6f
 8001104:	bf0c      	ite	eq
 8001106:	2308      	moveq	r3, #8
 8001108:	230a      	movne	r3, #10
 800110a:	4852      	ldr	r0, [pc, #328]	; (8001254 <_printf_i+0x244>)
 800110c:	2100      	movs	r1, #0
 800110e:	f884 1043 	strb.w	r1, [r4, #67]	; 0x43
 8001112:	6865      	ldr	r5, [r4, #4]
 8001114:	2d00      	cmp	r5, #0
 8001116:	bfa8      	it	ge
 8001118:	6821      	ldrge	r1, [r4, #0]
 800111a:	60a5      	str	r5, [r4, #8]
 800111c:	bfa4      	itt	ge
 800111e:	f021 0104 	bicge.w	r1, r1, #4
 8001122:	6021      	strge	r1, [r4, #0]
 8001124:	b90e      	cbnz	r6, 800112a <_printf_i+0x11a>
 8001126:	2d00      	cmp	r5, #0
 8001128:	d04d      	beq.n	80011c6 <_printf_i+0x1b6>
 800112a:	4615      	mov	r5, r2
 800112c:	fbb6 f1f3 	udiv	r1, r6, r3
 8001130:	fb03 6711 	mls	r7, r3, r1, r6
 8001134:	5dc7      	ldrb	r7, [r0, r7]
 8001136:	f805 7d01 	strb.w	r7, [r5, #-1]!
 800113a:	4637      	mov	r7, r6
 800113c:	42bb      	cmp	r3, r7
 800113e:	460e      	mov	r6, r1
 8001140:	d9f4      	bls.n	800112c <_printf_i+0x11c>
 8001142:	2b08      	cmp	r3, #8
 8001144:	d10b      	bne.n	800115e <_printf_i+0x14e>
 8001146:	6823      	ldr	r3, [r4, #0]
 8001148:	07de      	lsls	r6, r3, #31
 800114a:	d508      	bpl.n	800115e <_printf_i+0x14e>
 800114c:	6923      	ldr	r3, [r4, #16]
 800114e:	6861      	ldr	r1, [r4, #4]
 8001150:	4299      	cmp	r1, r3
 8001152:	bfde      	ittt	le
 8001154:	2330      	movle	r3, #48	; 0x30
 8001156:	f805 3c01 	strble.w	r3, [r5, #-1]
 800115a:	f105 35ff 	addle.w	r5, r5, #4294967295
 800115e:	1b52      	subs	r2, r2, r5
 8001160:	6122      	str	r2, [r4, #16]
 8001162:	464b      	mov	r3, r9
 8001164:	4621      	mov	r1, r4
 8001166:	4640      	mov	r0, r8
 8001168:	f8cd a000 	str.w	sl, [sp]
 800116c:	aa03      	add	r2, sp, #12
 800116e:	f7ff fedf 	bl	8000f30 <_printf_common>
 8001172:	3001      	adds	r0, #1
 8001174:	d14c      	bne.n	8001210 <_printf_i+0x200>
 8001176:	f04f 30ff 	mov.w	r0, #4294967295
 800117a:	b004      	add	sp, #16
 800117c:	e8bd 87f0 	ldmia.w	sp!, {r4, r5, r6, r7, r8, r9, sl, pc}
 8001180:	4834      	ldr	r0, [pc, #208]	; (8001254 <_printf_i+0x244>)
 8001182:	f881 7045 	strb.w	r7, [r1, #69]	; 0x45
 8001186:	6829      	ldr	r1, [r5, #0]
 8001188:	6823      	ldr	r3, [r4, #0]
 800118a:	f851 6b04 	ldr.w	r6, [r1], #4
 800118e:	6029      	str	r1, [r5, #0]
 8001190:	061d      	lsls	r5, r3, #24
 8001192:	d514      	bpl.n	80011be <_printf_i+0x1ae>
 8001194:	07df      	lsls	r7, r3, #31
 8001196:	bf44      	itt	mi
 8001198:	f043 0320 	orrmi.w	r3, r3, #32
 800119c:	6023      	strmi	r3, [r4, #0]
 800119e:	b91e      	cbnz	r6, 80011a8 <_printf_i+0x198>
 80011a0:	6823      	ldr	r3, [r4, #0]
 80011a2:	f023 0320 	bic.w	r3, r3, #32
 80011a6:	6023      	str	r3, [r4, #0]
 80011a8:	2310      	movs	r3, #16
 80011aa:	e7af      	b.n	800110c <_printf_i+0xfc>
 80011ac:	6823      	ldr	r3, [r4, #0]
 80011ae:	f043 0320 	orr.w	r3, r3, #32
 80011b2:	6023      	str	r3, [r4, #0]
 80011b4:	2378      	movs	r3, #120	; 0x78
 80011b6:	4828      	ldr	r0, [pc, #160]	; (8001258 <_printf_i+0x248>)
 80011b8:	f884 3045 	strb.w	r3, [r4, #69]	; 0x45
 80011bc:	e7e3      	b.n	8001186 <_printf_i+0x176>
 80011be:	0659      	lsls	r1, r3, #25
 80011c0:	bf48      	it	mi
 80011c2:	b2b6      	uxthmi	r6, r6
 80011c4:	e7e6      	b.n	8001194 <_printf_i+0x184>
 80011c6:	4615      	mov	r5, r2
 80011c8:	e7bb      	b.n	8001142 <_printf_i+0x132>
 80011ca:	682b      	ldr	r3, [r5, #0]
 80011cc:	6826      	ldr	r6, [r4, #0]
 80011ce:	1d18      	adds	r0, r3, #4
 80011d0:	6961      	ldr	r1, [r4, #20]
 80011d2:	6028      	str	r0, [r5, #0]
 80011d4:	0635      	lsls	r5, r6, #24
 80011d6:	681b      	ldr	r3, [r3, #0]
 80011d8:	d501      	bpl.n	80011de <_printf_i+0x1ce>
 80011da:	6019      	str	r1, [r3, #0]
 80011dc:	e002      	b.n	80011e4 <_printf_i+0x1d4>
 80011de:	0670      	lsls	r0, r6, #25
 80011e0:	d5fb      	bpl.n	80011da <_printf_i+0x1ca>
 80011e2:	8019      	strh	r1, [r3, #0]
 80011e4:	2300      	movs	r3, #0
 80011e6:	4615      	mov	r5, r2
 80011e8:	6123      	str	r3, [r4, #16]
 80011ea:	e7ba      	b.n	8001162 <_printf_i+0x152>
 80011ec:	682b      	ldr	r3, [r5, #0]
 80011ee:	2100      	movs	r1, #0
 80011f0:	1d1a      	adds	r2, r3, #4
 80011f2:	602a      	str	r2, [r5, #0]
 80011f4:	681d      	ldr	r5, [r3, #0]
 80011f6:	6862      	ldr	r2, [r4, #4]
 80011f8:	4628      	mov	r0, r5
 80011fa:	f000 f82f 	bl	800125c <memchr>
 80011fe:	b108      	cbz	r0, 8001204 <_printf_i+0x1f4>
 8001200:	1b40      	subs	r0, r0, r5
 8001202:	6060      	str	r0, [r4, #4]
 8001204:	6863      	ldr	r3, [r4, #4]
 8001206:	6123      	str	r3, [r4, #16]
 8001208:	2300      	movs	r3, #0
 800120a:	f884 3043 	strb.w	r3, [r4, #67]	; 0x43
 800120e:	e7a8      	b.n	8001162 <_printf_i+0x152>
 8001210:	462a      	mov	r2, r5
 8001212:	4649      	mov	r1, r9
 8001214:	4640      	mov	r0, r8
 8001216:	6923      	ldr	r3, [r4, #16]
 8001218:	47d0      	blx	sl
 800121a:	3001      	adds	r0, #1
 800121c:	d0ab      	beq.n	8001176 <_printf_i+0x166>
 800121e:	6823      	ldr	r3, [r4, #0]
 8001220:	079b      	lsls	r3, r3, #30
 8001222:	d413      	bmi.n	800124c <_printf_i+0x23c>
 8001224:	68e0      	ldr	r0, [r4, #12]
 8001226:	9b03      	ldr	r3, [sp, #12]
 8001228:	4298      	cmp	r0, r3
 800122a:	bfb8      	it	lt
 800122c:	4618      	movlt	r0, r3
 800122e:	e7a4      	b.n	800117a <_printf_i+0x16a>
 8001230:	2301      	movs	r3, #1
 8001232:	4632      	mov	r2, r6
 8001234:	4649      	mov	r1, r9
 8001236:	4640      	mov	r0, r8
 8001238:	47d0      	blx	sl
 800123a:	3001      	adds	r0, #1
 800123c:	d09b      	beq.n	8001176 <_printf_i+0x166>
 800123e:	3501      	adds	r5, #1
 8001240:	68e3      	ldr	r3, [r4, #12]
 8001242:	9903      	ldr	r1, [sp, #12]
 8001244:	1a5b      	subs	r3, r3, r1
 8001246:	42ab      	cmp	r3, r5
 8001248:	dcf2      	bgt.n	8001230 <_printf_i+0x220>
 800124a:	e7eb      	b.n	8001224 <_printf_i+0x214>
 800124c:	2500      	movs	r5, #0
 800124e:	f104 0619 	add.w	r6, r4, #25
 8001252:	e7f5      	b.n	8001240 <_printf_i+0x230>
 8001254:	08001591 	.word	0x08001591
 8001258:	080015a2 	.word	0x080015a2

0800125c <memchr>:
 800125c:	4603      	mov	r3, r0
 800125e:	b510      	push	{r4, lr}
 8001260:	b2c9      	uxtb	r1, r1
 8001262:	4402      	add	r2, r0
 8001264:	4293      	cmp	r3, r2
 8001266:	4618      	mov	r0, r3
 8001268:	d101      	bne.n	800126e <memchr+0x12>
 800126a:	2000      	movs	r0, #0
 800126c:	e003      	b.n	8001276 <memchr+0x1a>
 800126e:	7804      	ldrb	r4, [r0, #0]
 8001270:	3301      	adds	r3, #1
 8001272:	428c      	cmp	r4, r1
 8001274:	d1f6      	bne.n	8001264 <memchr+0x8>
 8001276:	bd10      	pop	{r4, pc}

08001278 <memcpy>:
 8001278:	440a      	add	r2, r1
 800127a:	4291      	cmp	r1, r2
 800127c:	f100 33ff 	add.w	r3, r0, #4294967295
 8001280:	d100      	bne.n	8001284 <memcpy+0xc>
 8001282:	4770      	bx	lr
 8001284:	b510      	push	{r4, lr}
 8001286:	f811 4b01 	ldrb.w	r4, [r1], #1
 800128a:	4291      	cmp	r1, r2
 800128c:	f803 4f01 	strb.w	r4, [r3, #1]!
 8001290:	d1f9      	bne.n	8001286 <memcpy+0xe>
 8001292:	bd10      	pop	{r4, pc}

08001294 <memmove>:
 8001294:	4288      	cmp	r0, r1
 8001296:	b510      	push	{r4, lr}
 8001298:	eb01 0402 	add.w	r4, r1, r2
 800129c:	d902      	bls.n	80012a4 <memmove+0x10>
 800129e:	4284      	cmp	r4, r0
 80012a0:	4623      	mov	r3, r4
 80012a2:	d807      	bhi.n	80012b4 <memmove+0x20>
 80012a4:	1e43      	subs	r3, r0, #1
 80012a6:	42a1      	cmp	r1, r4
 80012a8:	d008      	beq.n	80012bc <memmove+0x28>
 80012aa:	f811 2b01 	ldrb.w	r2, [r1], #1
 80012ae:	f803 2f01 	strb.w	r2, [r3, #1]!
 80012b2:	e7f8      	b.n	80012a6 <memmove+0x12>
 80012b4:	4601      	mov	r1, r0
 80012b6:	4402      	add	r2, r0
 80012b8:	428a      	cmp	r2, r1
 80012ba:	d100      	bne.n	80012be <memmove+0x2a>
 80012bc:	bd10      	pop	{r4, pc}
 80012be:	f813 4d01 	ldrb.w	r4, [r3, #-1]!
 80012c2:	f802 4d01 	strb.w	r4, [r2, #-1]!
 80012c6:	e7f7      	b.n	80012b8 <memmove+0x24>

080012c8 <_free_r>:
 80012c8:	b538      	push	{r3, r4, r5, lr}
 80012ca:	4605      	mov	r5, r0
 80012cc:	2900      	cmp	r1, #0
 80012ce:	d040      	beq.n	8001352 <_free_r+0x8a>
 80012d0:	f851 3c04 	ldr.w	r3, [r1, #-4]
 80012d4:	1f0c      	subs	r4, r1, #4
 80012d6:	2b00      	cmp	r3, #0
 80012d8:	bfb8      	it	lt
 80012da:	18e4      	addlt	r4, r4, r3
 80012dc:	f000 f910 	bl	8001500 <__malloc_lock>
 80012e0:	4a1c      	ldr	r2, [pc, #112]	; (8001354 <_free_r+0x8c>)
 80012e2:	6813      	ldr	r3, [r2, #0]
 80012e4:	b933      	cbnz	r3, 80012f4 <_free_r+0x2c>
 80012e6:	6063      	str	r3, [r4, #4]
 80012e8:	6014      	str	r4, [r2, #0]
 80012ea:	4628      	mov	r0, r5
 80012ec:	e8bd 4038 	ldmia.w	sp!, {r3, r4, r5, lr}
 80012f0:	f000 b90c 	b.w	800150c <__malloc_unlock>
 80012f4:	42a3      	cmp	r3, r4
 80012f6:	d908      	bls.n	800130a <_free_r+0x42>
 80012f8:	6820      	ldr	r0, [r4, #0]
 80012fa:	1821      	adds	r1, r4, r0
 80012fc:	428b      	cmp	r3, r1
 80012fe:	bf01      	itttt	eq
 8001300:	6819      	ldreq	r1, [r3, #0]
 8001302:	685b      	ldreq	r3, [r3, #4]
 8001304:	1809      	addeq	r1, r1, r0
 8001306:	6021      	streq	r1, [r4, #0]
 8001308:	e7ed      	b.n	80012e6 <_free_r+0x1e>
 800130a:	461a      	mov	r2, r3
 800130c:	685b      	ldr	r3, [r3, #4]
 800130e:	b10b      	cbz	r3, 8001314 <_free_r+0x4c>
 8001310:	42a3      	cmp	r3, r4
 8001312:	d9fa      	bls.n	800130a <_free_r+0x42>
 8001314:	6811      	ldr	r1, [r2, #0]
 8001316:	1850      	adds	r0, r2, r1
 8001318:	42a0      	cmp	r0, r4
 800131a:	d10b      	bne.n	8001334 <_free_r+0x6c>
 800131c:	6820      	ldr	r0, [r4, #0]
 800131e:	4401      	add	r1, r0
 8001320:	1850      	adds	r0, r2, r1
 8001322:	4283      	cmp	r3, r0
 8001324:	6011      	str	r1, [r2, #0]
 8001326:	d1e0      	bne.n	80012ea <_free_r+0x22>
 8001328:	6818      	ldr	r0, [r3, #0]
 800132a:	685b      	ldr	r3, [r3, #4]
 800132c:	4401      	add	r1, r0
 800132e:	6011      	str	r1, [r2, #0]
 8001330:	6053      	str	r3, [r2, #4]
 8001332:	e7da      	b.n	80012ea <_free_r+0x22>
 8001334:	d902      	bls.n	800133c <_free_r+0x74>
 8001336:	230c      	movs	r3, #12
 8001338:	602b      	str	r3, [r5, #0]
 800133a:	e7d6      	b.n	80012ea <_free_r+0x22>
 800133c:	6820      	ldr	r0, [r4, #0]
 800133e:	1821      	adds	r1, r4, r0
 8001340:	428b      	cmp	r3, r1
 8001342:	bf01      	itttt	eq
 8001344:	6819      	ldreq	r1, [r3, #0]
 8001346:	685b      	ldreq	r3, [r3, #4]
 8001348:	1809      	addeq	r1, r1, r0
 800134a:	6021      	streq	r1, [r4, #0]
 800134c:	6063      	str	r3, [r4, #4]
 800134e:	6054      	str	r4, [r2, #4]
 8001350:	e7cb      	b.n	80012ea <_free_r+0x22>
 8001352:	bd38      	pop	{r3, r4, r5, pc}
 8001354:	200000f4 	.word	0x200000f4

08001358 <sbrk_aligned>:
 8001358:	b570      	push	{r4, r5, r6, lr}
 800135a:	4e0e      	ldr	r6, [pc, #56]	; (8001394 <sbrk_aligned+0x3c>)
 800135c:	460c      	mov	r4, r1
 800135e:	6831      	ldr	r1, [r6, #0]
 8001360:	4605      	mov	r5, r0
 8001362:	b911      	cbnz	r1, 800136a <sbrk_aligned+0x12>
 8001364:	f000 f8bc 	bl	80014e0 <_sbrk_r>
 8001368:	6030      	str	r0, [r6, #0]
 800136a:	4621      	mov	r1, r4
 800136c:	4628      	mov	r0, r5
 800136e:	f000 f8b7 	bl	80014e0 <_sbrk_r>
 8001372:	1c43      	adds	r3, r0, #1
 8001374:	d00a      	beq.n	800138c <sbrk_aligned+0x34>
 8001376:	1cc4      	adds	r4, r0, #3
 8001378:	f024 0403 	bic.w	r4, r4, #3
 800137c:	42a0      	cmp	r0, r4
 800137e:	d007      	beq.n	8001390 <sbrk_aligned+0x38>
 8001380:	1a21      	subs	r1, r4, r0
 8001382:	4628      	mov	r0, r5
 8001384:	f000 f8ac 	bl	80014e0 <_sbrk_r>
 8001388:	3001      	adds	r0, #1
 800138a:	d101      	bne.n	8001390 <sbrk_aligned+0x38>
 800138c:	f04f 34ff 	mov.w	r4, #4294967295
 8001390:	4620      	mov	r0, r4
 8001392:	bd70      	pop	{r4, r5, r6, pc}
 8001394:	200000f8 	.word	0x200000f8

08001398 <_malloc_r>:
 8001398:	e92d 41f0 	stmdb	sp!, {r4, r5, r6, r7, r8, lr}
 800139c:	1ccd      	adds	r5, r1, #3
 800139e:	f025 0503 	bic.w	r5, r5, #3
 80013a2:	3508      	adds	r5, #8
 80013a4:	2d0c      	cmp	r5, #12
 80013a6:	bf38      	it	cc
 80013a8:	250c      	movcc	r5, #12
 80013aa:	2d00      	cmp	r5, #0
 80013ac:	4607      	mov	r7, r0
 80013ae:	db01      	blt.n	80013b4 <_malloc_r+0x1c>
 80013b0:	42a9      	cmp	r1, r5
 80013b2:	d905      	bls.n	80013c0 <_malloc_r+0x28>
 80013b4:	230c      	movs	r3, #12
 80013b6:	2600      	movs	r6, #0
 80013b8:	603b      	str	r3, [r7, #0]
 80013ba:	4630      	mov	r0, r6
 80013bc:	e8bd 81f0 	ldmia.w	sp!, {r4, r5, r6, r7, r8, pc}
 80013c0:	4e2e      	ldr	r6, [pc, #184]	; (800147c <_malloc_r+0xe4>)
 80013c2:	f000 f89d 	bl	8001500 <__malloc_lock>
 80013c6:	6833      	ldr	r3, [r6, #0]
 80013c8:	461c      	mov	r4, r3
 80013ca:	bb34      	cbnz	r4, 800141a <_malloc_r+0x82>
 80013cc:	4629      	mov	r1, r5
 80013ce:	4638      	mov	r0, r7
 80013d0:	f7ff ffc2 	bl	8001358 <sbrk_aligned>
 80013d4:	1c43      	adds	r3, r0, #1
 80013d6:	4604      	mov	r4, r0
 80013d8:	d14d      	bne.n	8001476 <_malloc_r+0xde>
 80013da:	6834      	ldr	r4, [r6, #0]
 80013dc:	4626      	mov	r6, r4
 80013de:	2e00      	cmp	r6, #0
 80013e0:	d140      	bne.n	8001464 <_malloc_r+0xcc>
 80013e2:	6823      	ldr	r3, [r4, #0]
 80013e4:	4631      	mov	r1, r6
 80013e6:	4638      	mov	r0, r7
 80013e8:	eb04 0803 	add.w	r8, r4, r3
 80013ec:	f000 f878 	bl	80014e0 <_sbrk_r>
 80013f0:	4580      	cmp	r8, r0
 80013f2:	d13a      	bne.n	800146a <_malloc_r+0xd2>
 80013f4:	6821      	ldr	r1, [r4, #0]
 80013f6:	3503      	adds	r5, #3
 80013f8:	1a6d      	subs	r5, r5, r1
 80013fa:	f025 0503 	bic.w	r5, r5, #3
 80013fe:	3508      	adds	r5, #8
 8001400:	2d0c      	cmp	r5, #12
 8001402:	bf38      	it	cc
 8001404:	250c      	movcc	r5, #12
 8001406:	4638      	mov	r0, r7
 8001408:	4629      	mov	r1, r5
 800140a:	f7ff ffa5 	bl	8001358 <sbrk_aligned>
 800140e:	3001      	adds	r0, #1
 8001410:	d02b      	beq.n	800146a <_malloc_r+0xd2>
 8001412:	6823      	ldr	r3, [r4, #0]
 8001414:	442b      	add	r3, r5
 8001416:	6023      	str	r3, [r4, #0]
 8001418:	e00e      	b.n	8001438 <_malloc_r+0xa0>
 800141a:	6822      	ldr	r2, [r4, #0]
 800141c:	1b52      	subs	r2, r2, r5
 800141e:	d41e      	bmi.n	800145e <_malloc_r+0xc6>
 8001420:	2a0b      	cmp	r2, #11
 8001422:	d916      	bls.n	8001452 <_malloc_r+0xba>
 8001424:	1961      	adds	r1, r4, r5
 8001426:	42a3      	cmp	r3, r4
 8001428:	6025      	str	r5, [r4, #0]
 800142a:	bf18      	it	ne
 800142c:	6059      	strne	r1, [r3, #4]
 800142e:	6863      	ldr	r3, [r4, #4]
 8001430:	bf08      	it	eq
 8001432:	6031      	streq	r1, [r6, #0]
 8001434:	5162      	str	r2, [r4, r5]
 8001436:	604b      	str	r3, [r1, #4]
 8001438:	4638      	mov	r0, r7
 800143a:	f104 060b 	add.w	r6, r4, #11
 800143e:	f000 f865 	bl	800150c <__malloc_unlock>
 8001442:	f026 0607 	bic.w	r6, r6, #7
 8001446:	1d23      	adds	r3, r4, #4
 8001448:	1af2      	subs	r2, r6, r3
 800144a:	d0b6      	beq.n	80013ba <_malloc_r+0x22>
 800144c:	1b9b      	subs	r3, r3, r6
 800144e:	50a3      	str	r3, [r4, r2]
 8001450:	e7b3      	b.n	80013ba <_malloc_r+0x22>
 8001452:	6862      	ldr	r2, [r4, #4]
 8001454:	42a3      	cmp	r3, r4
 8001456:	bf0c      	ite	eq
 8001458:	6032      	streq	r2, [r6, #0]
 800145a:	605a      	strne	r2, [r3, #4]
 800145c:	e7ec      	b.n	8001438 <_malloc_r+0xa0>
 800145e:	4623      	mov	r3, r4
 8001460:	6864      	ldr	r4, [r4, #4]
 8001462:	e7b2      	b.n	80013ca <_malloc_r+0x32>
 8001464:	4634      	mov	r4, r6
 8001466:	6876      	ldr	r6, [r6, #4]
 8001468:	e7b9      	b.n	80013de <_malloc_r+0x46>
 800146a:	230c      	movs	r3, #12
 800146c:	4638      	mov	r0, r7
 800146e:	603b      	str	r3, [r7, #0]
 8001470:	f000 f84c 	bl	800150c <__malloc_unlock>
 8001474:	e7a1      	b.n	80013ba <_malloc_r+0x22>
 8001476:	6025      	str	r5, [r4, #0]
 8001478:	e7de      	b.n	8001438 <_malloc_r+0xa0>
 800147a:	bf00      	nop
 800147c:	200000f4 	.word	0x200000f4

08001480 <_realloc_r>:
 8001480:	e92d 41f0 	stmdb	sp!, {r4, r5, r6, r7, r8, lr}
 8001484:	4680      	mov	r8, r0
 8001486:	4614      	mov	r4, r2
 8001488:	460e      	mov	r6, r1
 800148a:	b921      	cbnz	r1, 8001496 <_realloc_r+0x16>
 800148c:	4611      	mov	r1, r2
 800148e:	e8bd 41f0 	ldmia.w	sp!, {r4, r5, r6, r7, r8, lr}
 8001492:	f7ff bf81 	b.w	8001398 <_malloc_r>
 8001496:	b92a      	cbnz	r2, 80014a4 <_realloc_r+0x24>
 8001498:	f7ff ff16 	bl	80012c8 <_free_r>
 800149c:	4625      	mov	r5, r4
 800149e:	4628      	mov	r0, r5
 80014a0:	e8bd 81f0 	ldmia.w	sp!, {r4, r5, r6, r7, r8, pc}
 80014a4:	f000 f838 	bl	8001518 <_malloc_usable_size_r>
 80014a8:	4284      	cmp	r4, r0
 80014aa:	4607      	mov	r7, r0
 80014ac:	d802      	bhi.n	80014b4 <_realloc_r+0x34>
 80014ae:	ebb4 0f50 	cmp.w	r4, r0, lsr #1
 80014b2:	d812      	bhi.n	80014da <_realloc_r+0x5a>
 80014b4:	4621      	mov	r1, r4
 80014b6:	4640      	mov	r0, r8
 80014b8:	f7ff ff6e 	bl	8001398 <_malloc_r>
 80014bc:	4605      	mov	r5, r0
 80014be:	2800      	cmp	r0, #0
 80014c0:	d0ed      	beq.n	800149e <_realloc_r+0x1e>
 80014c2:	42bc      	cmp	r4, r7
 80014c4:	4622      	mov	r2, r4
 80014c6:	4631      	mov	r1, r6
 80014c8:	bf28      	it	cs
 80014ca:	463a      	movcs	r2, r7
 80014cc:	f7ff fed4 	bl	8001278 <memcpy>
 80014d0:	4631      	mov	r1, r6
 80014d2:	4640      	mov	r0, r8
 80014d4:	f7ff fef8 	bl	80012c8 <_free_r>
 80014d8:	e7e1      	b.n	800149e <_realloc_r+0x1e>
 80014da:	4635      	mov	r5, r6
 80014dc:	e7df      	b.n	800149e <_realloc_r+0x1e>
	...

080014e0 <_sbrk_r>:
 80014e0:	b538      	push	{r3, r4, r5, lr}
 80014e2:	2300      	movs	r3, #0
 80014e4:	4d05      	ldr	r5, [pc, #20]	; (80014fc <_sbrk_r+0x1c>)
 80014e6:	4604      	mov	r4, r0
 80014e8:	4608      	mov	r0, r1
 80014ea:	602b      	str	r3, [r5, #0]
 80014ec:	f7fe fff4 	bl	80004d8 <_sbrk>
 80014f0:	1c43      	adds	r3, r0, #1
 80014f2:	d102      	bne.n	80014fa <_sbrk_r+0x1a>
 80014f4:	682b      	ldr	r3, [r5, #0]
 80014f6:	b103      	cbz	r3, 80014fa <_sbrk_r+0x1a>
 80014f8:	6023      	str	r3, [r4, #0]
 80014fa:	bd38      	pop	{r3, r4, r5, pc}
 80014fc:	200000fc 	.word	0x200000fc

08001500 <__malloc_lock>:
 8001500:	4801      	ldr	r0, [pc, #4]	; (8001508 <__malloc_lock+0x8>)
 8001502:	f000 b811 	b.w	8001528 <__retarget_lock_acquire_recursive>
 8001506:	bf00      	nop
 8001508:	20000100 	.word	0x20000100

0800150c <__malloc_unlock>:
 800150c:	4801      	ldr	r0, [pc, #4]	; (8001514 <__malloc_unlock+0x8>)
 800150e:	f000 b80c 	b.w	800152a <__retarget_lock_release_recursive>
 8001512:	bf00      	nop
 8001514:	20000100 	.word	0x20000100

08001518 <_malloc_usable_size_r>:
 8001518:	f851 3c04 	ldr.w	r3, [r1, #-4]
 800151c:	1f18      	subs	r0, r3, #4
 800151e:	2b00      	cmp	r3, #0
 8001520:	bfbc      	itt	lt
 8001522:	580b      	ldrlt	r3, [r1, r0]
 8001524:	18c0      	addlt	r0, r0, r3
 8001526:	4770      	bx	lr

08001528 <__retarget_lock_acquire_recursive>:
 8001528:	4770      	bx	lr

0800152a <__retarget_lock_release_recursive>:
 800152a:	4770      	bx	lr

0800152c <_init>:
 800152c:	b5f8      	push	{r3, r4, r5, r6, r7, lr}
 800152e:	bf00      	nop
 8001530:	bcf8      	pop	{r3, r4, r5, r6, r7}
 8001532:	bc08      	pop	{r3}
 8001534:	469e      	mov	lr, r3
 8001536:	4770      	bx	lr

08001538 <_fini>:
 8001538:	b5f8      	push	{r3, r4, r5, r6, r7, lr}
 800153a:	bf00      	nop
 800153c:	bcf8      	pop	{r3, r4, r5, r6, r7}
 800153e:	bc08      	pop	{r3}
 8001540:	469e      	mov	lr, r3
 8001542:	4770      	bx	lr
